	.section	__TEXT,__text,regular,pure_instructions
	.file	1 "/Users/tarvydas/tools/Odin/core/runtime/core.odin"
	.file	2 "/Users/tarvydas/tools/Odin/core/runtime/default_allocators_arena.odin"
	.file	3 "/Users/tarvydas/tools/Odin/core/runtime/default_temporary_allocator.odin"
	.file	4 "/Users/tarvydas/tools/Odin/core/runtime/core_builtin.odin"
	.file	5 "/Users/tarvydas/quicklisp/local-projects/odinasm/main.odin"
	.file	6 "/Users/tarvydas/tools/Odin/core/os/os_darwin.odin"
	.file	7 "/Users/tarvydas/tools/Odin/core/runtime/print.odin"
	.file	8 "/Users/tarvydas/tools/Odin/core/os/stat.odin"
	.file	9 "/Users/tarvydas/tools/Odin/core/time/time.odin"
	.file	10 "/Users/tarvydas/tools/Odin/core/sync/primitives_atomic.odin"
	.file	11 "/Users/tarvydas/tools/Odin/core/c/c.odin"
	.p2align	4, 0x90
___$startup_type_info:
Lfunc_begin0:
	.cfi_startproc
	pushq	%r15
	.cfi_def_cfa_offset 16
	pushq	%r14
	.cfi_def_cfa_offset 24
	pushq	%rbx
	.cfi_def_cfa_offset 32
	subq	$704, %rsp
	.cfi_def_cfa_offset 736
	.cfi_offset %rbx, -32
	.cfi_offset %r14, -24
	.cfi_offset %r15, -16
	jmp	LBB0_1
LBB0_1:
	movq	$8, ___$type_info_data+9440(%rip)
	movq	$8, ___$type_info_data+9448(%rip)
	movl	$1, ___$type_info_data+9456(%rip)
	movabsq	$720575940379279419, %rax
	movq	%rax, ___$type_info_data+9464(%rip)
	leaq	___$type_info_data+2720(%rip), %rax
	movq	%rax, ___$type_info_data+9472(%rip)
	movq	$11, ___$type_info_data+9592(%rip)
	movq	$16, ___$type_info_data+2720(%rip)
	movq	$8, ___$type_info_data+2728(%rip)
	movl	$1, ___$type_info_data+2736(%rip)
	movabsq	$432345564227567633, %rcx
	movq	%rcx, ___$type_info_data+2744(%rip)
	movq	$7, ___$type_info_data+2872(%rip)
	movq	$8, ___$type_info_data+2880(%rip)
	movq	$8, ___$type_info_data+2888(%rip)
	movl	$1, ___$type_info_data+2896(%rip)
	movabsq	$720575940379279378, %rcx
	movq	%rcx, ___$type_info_data+2904(%rip)
	leaq	___$type_info_data+1600(%rip), %rcx
	movq	%rcx, ___$type_info_data+2912(%rip)
	movq	$11, ___$type_info_data+3032(%rip)
	movq	$1, ___$type_info_data+1600(%rip)
	movq	$1, ___$type_info_data+1608(%rip)
	movl	$1, ___$type_info_data+1616(%rip)
	movabsq	$72057594037927946, %rdx
	movq	%rdx, ___$type_info_data+1624(%rip)
	movb	$0, ___$type_info_data+1633(%rip)
	movb	$0, ___$type_info_data+1632(%rip)
	movq	$2, ___$type_info_data+1752(%rip)
	movq	$8, ___$type_info_data+160(%rip)
	leaq	___$type_info_data+160(%rip), %rdx
	movq	$8, ___$type_info_data+168(%rip)
	movl	$1, ___$type_info_data+176(%rip)
	movabsq	$4683743612465315841, %rsi
	movq	%rsi, ___$type_info_data+184(%rip)
	movb	$0, ___$type_info_data+193(%rip)
	movb	$1, ___$type_info_data+192(%rip)
	movq	$2, ___$type_info_data+312(%rip)
	movq	$8, ___$type_info_data+9120(%rip)
	movq	$8, ___$type_info_data+9128(%rip)
	movl	$1, ___$type_info_data+9136(%rip)
	movabsq	$720575940379279417, %rsi
	movq	%rsi, ___$type_info_data+9144(%rip)
	leaq	___$type_info_data+480(%rip), %rsi
	movq	%rsi, ___$type_info_data+9152(%rip)
	movq	$11, ___$type_info_data+9272(%rip)
	movq	$8, ___$type_info_data+480(%rip)
	movq	$8, ___$type_info_data+488(%rip)
	movl	$1, ___$type_info_data+496(%rip)
	movabsq	$720575940379279363, %rdi
	movq	%rdi, ___$type_info_data+504(%rip)
	leaq	___$type_info_data+640(%rip), %rdi
	movq	%rdi, ___$type_info_data+512(%rip)
	movq	$11, ___$type_info_data+632(%rip)
	movq	$160, ___$type_info_data+640(%rip)
	movq	$8, ___$type_info_data+648(%rip)
	movl	$0, ___$type_info_data+656(%rip)
	movabsq	$3602879701896396804, %rdi
	movq	%rdi, ___$type_info_data+664(%rip)
	leaq	___$type_info_data+672(%rip), %rdi
	leaq	l_ggv$0(%rip), %r8
	movl	$80, %r9d
	movq	%rsi, 696(%rsp)
	movq	%r8, %rsi
	movq	%rdx, 688(%rsp)
	movq	%r9, %rdx
	movq	%rax, 680(%rsp)
	movq	%rcx, 672(%rsp)
	movq	%r9, 664(%rsp)
	callq	_memmove
	movq	$1, ___$type_info_data+792(%rip)
	movq	$160, ___$type_info_data+800(%rip)
	movq	$8, ___$type_info_data+808(%rip)
	movl	$0, ___$type_info_data+816(%rip)
	movabsq	$1297036692682702853, %rcx
	movq	%rcx, ___$type_info_data+824(%rip)
	movq	688(%rsp), %rcx
	movq	%rcx, ___$type_info_types_data(%rip)
	leaq	L_csbs$4(%rip), %rdx
	movq	%rdx, ___$type_info_names_data(%rip)
	movq	$4, ___$type_info_names_data+8(%rip)
	movq	$0, ___$type_info_offsets_data(%rip)
	movb	$0, ___$type_info_usings_data(%rip)
	movq	%rcx, ___$type_info_types_data+8(%rip)
	leaq	L_csbs$5(%rip), %rdx
	movq	%rdx, ___$type_info_names_data+16(%rip)
	movq	$5, ___$type_info_names_data+24(%rip)
	movq	$8, ___$type_info_offsets_data+8(%rip)
	movb	$0, ___$type_info_usings_data+1(%rip)
	leaq	___$type_info_data+960(%rip), %rdx
	movq	%rdx, ___$type_info_types_data+16(%rip)
	leaq	L_csbs$6(%rip), %rdx
	movq	%rdx, ___$type_info_names_data+32(%rip)
	movq	$5, ___$type_info_names_data+40(%rip)
	movq	$16, ___$type_info_offsets_data+16(%rip)
	movb	$0, ___$type_info_usings_data+2(%rip)
	leaq	___$type_info_data+1920(%rip), %rdx
	movq	%rdx, ___$type_info_types_data+24(%rip)
	leaq	L_csbs$7(%rip), %rdx
	movq	%rdx, ___$type_info_names_data+48(%rip)
	movq	$2, ___$type_info_names_data+56(%rip)
	movq	$24, ___$type_info_offsets_data+24(%rip)
	movb	$0, ___$type_info_usings_data+3(%rip)
	leaq	___$type_info_data+2080(%rip), %rdx
	movq	%rdx, ___$type_info_types_data+32(%rip)
	leaq	L_csbs$8(%rip), %rdx
	movq	%rdx, ___$type_info_names_data+64(%rip)
	movq	$7, ___$type_info_names_data+72(%rip)
	movq	$32, ___$type_info_offsets_data+32(%rip)
	movb	$0, ___$type_info_usings_data+4(%rip)
	leaq	___$type_info_data+832(%rip), %rdi
	leaq	l_ggv$1(%rip), %rsi
	movl	$120, %edx
	movq	%rdx, 656(%rsp)
	movq	%rax, 648(%rsp)
	callq	_memmove
	movq	$19, ___$type_info_data+952(%rip)
	movq	$4, ___$type_info_data+960(%rip)
	movq	$4, ___$type_info_data+968(%rip)
	movl	$1, ___$type_info_data+976(%rip)
	movabsq	$3891110078048108550, %rcx
	movq	%rcx, ___$type_info_data+984(%rip)
	leaq	___$type_info_data+992(%rip), %rdi
	leaq	l_ggv$2(%rip), %rsi
	movq	664(%rsp), %rdx
	movq	%rax, 640(%rsp)
	callq	_memmove
	movq	$1, ___$type_info_data+1112(%rip)
	movq	$4, ___$type_info_data+1120(%rip)
	movq	$4, ___$type_info_data+1128(%rip)
	movl	$1, ___$type_info_data+1136(%rip)
	movabsq	$1585267068834414599, %rcx
	movq	%rcx, ___$type_info_data+1144(%rip)
	leaq	___$type_info_data+1760(%rip), %rcx
	movq	%rcx, ___$type_info_data+1160(%rip)
	leaq	___$type_info_data+1280(%rip), %rcx
	movq	%rcx, ___$type_info_data+1152(%rip)
	movq	$1, ___$type_info_data+1176(%rip)
	movq	$0, ___$type_info_data+1168(%rip)
	movq	$23, ___$type_info_data+1272(%rip)
	movq	$1, ___$type_info_data+1280(%rip)
	movq	$1, ___$type_info_data+1288(%rip)
	movl	$1, ___$type_info_data+1296(%rip)
	movabsq	$3746994889972252680, %rcx
	movq	%rcx, ___$type_info_data+1304(%rip)
	leaq	___$type_info_data+1312(%rip), %rdi
	leaq	l_ggv$3(%rip), %rsi
	movq	664(%rsp), %rdx
	movq	%rax, 632(%rsp)
	callq	_memmove
	movq	$1, ___$type_info_data+1432(%rip)
	movq	$1, ___$type_info_data+1440(%rip)
	movq	$1, ___$type_info_data+1448(%rip)
	movl	$1, ___$type_info_data+1456(%rip)
	movabsq	$1441151880758558729, %rcx
	movq	%rcx, ___$type_info_data+1464(%rip)
	leaq	"L_$enum_values-9"(%rip), %rcx
	movq	%rcx, ___$type_info_data+1496(%rip)
	leaq	"l_$enum_names-9"(%rip), %rcx
	movq	%rcx, ___$type_info_data+1480(%rip)
	movq	672(%rsp), %rcx
	movq	%rcx, ___$type_info_data+1472(%rip)
	movq	$2, ___$type_info_data+1504(%rip)
	movq	$2, ___$type_info_data+1488(%rip)
	movq	$21, ___$type_info_data+1592(%rip)
	movq	$4, ___$type_info_data+1760(%rip)
	movq	$4, ___$type_info_data+1768(%rip)
	movl	$1, ___$type_info_data+1776(%rip)
	movabsq	$72057594037927947, %rdx
	movq	%rdx, ___$type_info_data+1784(%rip)
	movb	$0, ___$type_info_data+1793(%rip)
	movb	$0, ___$type_info_data+1792(%rip)
	movq	$2, ___$type_info_data+1912(%rip)
	movq	$8, ___$type_info_data+1920(%rip)
	movq	$8, ___$type_info_data+1928(%rip)
	movl	$1, ___$type_info_data+1936(%rip)
	movq	$12, ___$type_info_data+1944(%rip)
	movq	$10, ___$type_info_data+2072(%rip)
	movq	$128, ___$type_info_data+2080(%rip)
	movq	$8, ___$type_info_data+2088(%rip)
	movl	$0, ___$type_info_data+2096(%rip)
	movabsq	$1369094286720630797, %rdx
	movq	%rdx, ___$type_info_data+2104(%rip)
	leaq	___$type_info_data+2400(%rip), %rdx
	movq	%rdx, ___$type_info_types_data+40(%rip)
	leaq	___$type_info_types_data+40(%rip), %rdx
	leaq	___$type_info_data+3520(%rip), %rsi
	movq	%rsi, ___$type_info_types_data+48(%rip)
	leaq	___$type_info_data+4320(%rip), %rsi
	movq	%rsi, ___$type_info_types_data+56(%rip)
	leaq	___$type_info_data+4640(%rip), %rsi
	movq	%rsi, ___$type_info_types_data+64(%rip)
	leaq	___$type_info_data+4960(%rip), %rsi
	movq	%rsi, ___$type_info_types_data+72(%rip)
	leaq	___$type_info_data+5120(%rip), %rsi
	movq	%rsi, ___$type_info_types_data+80(%rip)
	leaq	___$type_info_data+5280(%rip), %rsi
	movq	%rsi, ___$type_info_types_data+88(%rip)
	leaq	___$type_info_data+5600(%rip), %rsi
	movq	%rsi, ___$type_info_types_data+96(%rip)
	leaq	___$type_info_data+5760(%rip), %rsi
	movq	%rsi, ___$type_info_types_data+104(%rip)
	leaq	___$type_info_data+5920(%rip), %rsi
	movq	%rsi, ___$type_info_types_data+112(%rip)
	leaq	___$type_info_data+6080(%rip), %rsi
	movq	%rsi, ___$type_info_types_data+120(%rip)
	leaq	___$type_info_data+6400(%rip), %rsi
	movq	%rsi, ___$type_info_types_data+128(%rip)
	leaq	___$type_info_data+6560(%rip), %rsi
	movq	%rsi, ___$type_info_types_data+136(%rip)
	leaq	___$type_info_data+7200(%rip), %rsi
	movq	%rsi, ___$type_info_types_data+144(%rip)
	leaq	___$type_info_data+7520(%rip), %rsi
	movq	%rsi, ___$type_info_types_data+152(%rip)
	leaq	___$type_info_data+8160(%rip), %rsi
	movq	%rsi, ___$type_info_types_data+160(%rip)
	leaq	___$type_info_data+8480(%rip), %rsi
	movq	%rsi, ___$type_info_types_data+168(%rip)
	leaq	___$type_info_data+8640(%rip), %rsi
	movq	%rsi, ___$type_info_types_data+176(%rip)
	leaq	___$type_info_data+9600(%rip), %rsi
	movq	%rsi, ___$type_info_types_data+184(%rip)
	leaq	___$type_info_data+11680(%rip), %rsi
	movq	%rsi, ___$type_info_types_data+192(%rip)
	leaq	___$type_info_data+12000(%rip), %rsi
	movq	%rsi, ___$type_info_types_data+200(%rip)
	leaq	___$type_info_data+12640(%rip), %rsi
	movq	%rsi, ___$type_info_types_data+208(%rip)
	leaq	___$type_info_data+14720(%rip), %rsi
	movq	%rsi, ___$type_info_types_data+216(%rip)
	leaq	___$type_info_data+15040(%rip), %rsi
	movq	%rsi, ___$type_info_types_data+224(%rip)
	leaq	___$type_info_data+15200(%rip), %rsi
	movq	%rsi, ___$type_info_types_data+232(%rip)
	leaq	___$type_info_data+15520(%rip), %rsi
	movq	%rsi, ___$type_info_types_data+240(%rip)
	leaq	___$type_info_data+15840(%rip), %rsi
	movq	%rsi, ___$type_info_types_data+248(%rip)
	leaq	___$type_info_data+16160(%rip), %rsi
	movq	%rsi, ___$type_info_types_data+256(%rip)
	leaq	___$type_info_data+2240(%rip), %rsi
	movq	%rsi, ___$type_info_data+2136(%rip)
	movq	%rdx, ___$type_info_data+2112(%rip)
	movb	$0, ___$type_info_data+2159(%rip)
	movb	$0, ___$type_info_data+2158(%rip)
	movb	$0, ___$type_info_data+2157(%rip)
	movb	$0, ___$type_info_data+2156(%rip)
	movb	$0, ___$type_info_data+2155(%rip)
	movb	$0, ___$type_info_data+2154(%rip)
	movb	$0, ___$type_info_data+2153(%rip)
	movb	$0, ___$type_info_data+2152(%rip)
	movq	$0, ___$type_info_data+2144(%rip)
	movq	$120, ___$type_info_data+2128(%rip)
	movq	$28, ___$type_info_data+2120(%rip)
	movq	$20, ___$type_info_data+2232(%rip)
	movq	$8, ___$type_info_data+2240(%rip)
	movq	$8, ___$type_info_data+2248(%rip)
	movl	$1, ___$type_info_data+2256(%rip)
	movabsq	$72057594037927950, %rdx
	movq	%rdx, ___$type_info_data+2264(%rip)
	movb	$0, ___$type_info_data+2273(%rip)
	movb	$0, ___$type_info_data+2272(%rip)
	movq	$2, ___$type_info_data+2392(%rip)
	movq	$80, ___$type_info_data+2400(%rip)
	movq	$8, ___$type_info_data+2408(%rip)
	movl	$1, ___$type_info_data+2416(%rip)
	movabsq	$3602879701896396815, %rdx
	movq	%rdx, ___$type_info_data+2424(%rip)
	leaq	___$type_info_data+2432(%rip), %rdi
	leaq	l_ggv$4(%rip), %rsi
	movq	664(%rsp), %rdx
	movq	%rax, 624(%rsp)
	callq	_memmove
	movq	$1, ___$type_info_data+2552(%rip)
	movq	$80, ___$type_info_data+2560(%rip)
	movq	$8, ___$type_info_data+2568(%rip)
	movl	$1, ___$type_info_data+2576(%rip)
	movabsq	$1297036692682702864, %rcx
	movq	%rcx, ___$type_info_data+2584(%rip)
	movq	680(%rsp), %rcx
	movq	%rcx, ___$type_info_types_data+264(%rip)
	leaq	L_csbs$e(%rip), %rdx
	movq	%rdx, ___$type_info_names_data+80(%rip)
	movq	$4, ___$type_info_names_data+88(%rip)
	movq	$0, ___$type_info_offsets_data+40(%rip)
	movb	$0, ___$type_info_usings_data+5(%rip)
	movq	696(%rsp), %rdx
	movq	%rdx, ___$type_info_types_data+272(%rip)
	leaq	L_csbs$f(%rip), %rsi
	movq	%rsi, ___$type_info_names_data+96(%rip)
	movq	$4, ___$type_info_names_data+104(%rip)
	movq	$16, ___$type_info_offsets_data+48(%rip)
	movb	$0, ___$type_info_usings_data+6(%rip)
	movq	%rcx, ___$type_info_types_data+280(%rip)
	leaq	L_csbs$10(%rip), %rdi
	movq	%rdi, ___$type_info_names_data+112(%rip)
	movq	$3, ___$type_info_names_data+120(%rip)
	movq	$24, ___$type_info_offsets_data+56(%rip)
	movb	$0, ___$type_info_usings_data+7(%rip)
	leaq	___$type_info_data+3040(%rip), %rdi
	movq	%rdi, ___$type_info_types_data+288(%rip)
	leaq	L_csbs$11(%rip), %rdi
	movq	%rdi, ___$type_info_names_data+128(%rip)
	movq	$3, ___$type_info_names_data+136(%rip)
	movq	$40, ___$type_info_offsets_data+64(%rip)
	movb	$0, ___$type_info_usings_data+8(%rip)
	leaq	___$type_info_data+2592(%rip), %rdi
	leaq	l_ggv$5(%rip), %r8
	movq	%rsi, 616(%rsp)
	movq	%r8, %rsi
	movq	656(%rsp), %rdx
	movq	%rax, 608(%rsp)
	callq	_memmove
	movq	$19, ___$type_info_data+2712(%rip)
	movq	$40, ___$type_info_data+3040(%rip)
	movq	$8, ___$type_info_data+3048(%rip)
	movl	$1, ___$type_info_data+3056(%rip)
	movabsq	$3602879701896396819, %rcx
	movq	%rcx, ___$type_info_data+3064(%rip)
	leaq	___$type_info_data+3072(%rip), %rdi
	leaq	l_ggv$6(%rip), %rsi
	movq	664(%rsp), %rdx
	movq	%rax, 600(%rsp)
	callq	_memmove
	movq	$1, ___$type_info_data+3192(%rip)
	movq	$40, ___$type_info_data+3200(%rip)
	movq	$8, ___$type_info_data+3208(%rip)
	movl	$1, ___$type_info_data+3216(%rip)
	movabsq	$1297036692682702868, %rcx
	movq	%rcx, ___$type_info_data+3224(%rip)
	movq	680(%rsp), %rcx
	movq	%rcx, ___$type_info_types_data+296(%rip)
	leaq	L_csbs$13(%rip), %rdx
	movq	%rdx, ___$type_info_names_data+144(%rip)
	movq	$9, ___$type_info_names_data+152(%rip)
	movq	$0, ___$type_info_offsets_data+72(%rip)
	movb	$0, ___$type_info_usings_data+9(%rip)
	leaq	___$type_info_data+3360(%rip), %rdx
	movq	%rdx, ___$type_info_types_data+304(%rip)
	leaq	L_csbs$14(%rip), %rsi
	movq	%rsi, ___$type_info_names_data+160(%rip)
	movq	$4, ___$type_info_names_data+168(%rip)
	movq	$16, ___$type_info_offsets_data+80(%rip)
	movb	$0, ___$type_info_usings_data+10(%rip)
	movq	%rdx, ___$type_info_types_data+312(%rip)
	leaq	L_csbs$15(%rip), %rdx
	movq	%rdx, ___$type_info_names_data+176(%rip)
	movq	$6, ___$type_info_names_data+184(%rip)
	movq	$20, ___$type_info_offsets_data+88(%rip)
	movb	$0, ___$type_info_usings_data+11(%rip)
	movq	%rcx, ___$type_info_types_data+320(%rip)
	leaq	L_csbs$16(%rip), %rdx
	movq	%rdx, ___$type_info_names_data+192(%rip)
	movq	$9, ___$type_info_names_data+200(%rip)
	movq	$24, ___$type_info_offsets_data+96(%rip)
	movb	$0, ___$type_info_usings_data+12(%rip)
	leaq	___$type_info_data+3232(%rip), %rdi
	leaq	l_ggv$7(%rip), %rsi
	movq	656(%rsp), %rdx
	movq	%rax, 592(%rsp)
	callq	_memmove
	movq	$19, ___$type_info_data+3352(%rip)
	movq	$4, ___$type_info_data+3360(%rip)
	movq	$4, ___$type_info_data+3368(%rip)
	movl	$1, ___$type_info_data+3376(%rip)
	movabsq	$4683743612465315861, %rcx
	movq	%rcx, ___$type_info_data+3384(%rip)
	movb	$0, ___$type_info_data+3393(%rip)
	movb	$1, ___$type_info_data+3392(%rip)
	movq	$2, ___$type_info_data+3512(%rip)
	movq	$2, ___$type_info_data+3520(%rip)
	movq	$1, ___$type_info_data+3528(%rip)
	movl	$1, ___$type_info_data+3536(%rip)
	movabsq	$3602879701896396822, %rcx
	movq	%rcx, ___$type_info_data+3544(%rip)
	leaq	___$type_info_data+3552(%rip), %rdi
	leaq	l_ggv$8(%rip), %rsi
	movq	664(%rsp), %rdx
	movq	%rax, 584(%rsp)
	callq	_memmove
	movq	$1, ___$type_info_data+3672(%rip)
	movq	$2, ___$type_info_data+3680(%rip)
	movq	$1, ___$type_info_data+3688(%rip)
	movl	$1, ___$type_info_data+3696(%rip)
	movabsq	$1297036692682702871, %rcx
	movq	%rcx, ___$type_info_data+3704(%rip)
	leaq	___$type_info_data+3840(%rip), %rcx
	movq	%rcx, ___$type_info_types_data+328(%rip)
	leaq	L_csbs$18(%rip), %rdx
	movq	%rdx, ___$type_info_names_data+208(%rip)
	movq	$6, ___$type_info_names_data+216(%rip)
	movq	$0, ___$type_info_offsets_data+104(%rip)
	movb	$0, ___$type_info_usings_data+13(%rip)
	leaq	___$type_info_data+4000(%rip), %rdx
	movq	%rdx, ___$type_info_types_data+336(%rip)
	leaq	L_csbs$19(%rip), %rsi
	movq	%rsi, ___$type_info_names_data+224(%rip)
	movq	$10, ___$type_info_names_data+232(%rip)
	movq	$1, ___$type_info_offsets_data+112(%rip)
	movb	$0, ___$type_info_usings_data+14(%rip)
	leaq	___$type_info_data+3712(%rip), %rdi
	leaq	l_ggv$9(%rip), %r8
	movq	%rsi, 576(%rsp)
	movq	%r8, %rsi
	movq	656(%rsp), %r8
	movq	%rdx, 568(%rsp)
	movq	%r8, %rdx
	movq	%rax, 560(%rsp)
	movq	%rcx, 552(%rsp)
	callq	_memmove
	movq	$19, ___$type_info_data+3832(%rip)
	movq	$1, ___$type_info_data+3840(%rip)
	movq	$1, ___$type_info_data+3848(%rip)
	movl	$1, ___$type_info_data+3856(%rip)
	movabsq	$504403158265495576, %rcx
	movq	%rcx, ___$type_info_data+3864(%rip)
	movq	$8, ___$type_info_data+3992(%rip)
	movq	$1, ___$type_info_data+4000(%rip)
	movq	$1, ___$type_info_data+4008(%rip)
	movl	$1, ___$type_info_data+4016(%rip)
	movabsq	$3746994889972252697, %rcx
	movq	%rcx, ___$type_info_data+4024(%rip)
	leaq	___$type_info_data+4032(%rip), %rdi
	leaq	l_ggv$a(%rip), %rsi
	movq	664(%rsp), %rdx
	movq	%rax, 544(%rsp)
	callq	_memmove
	movq	$1, ___$type_info_data+4152(%rip)
	movq	$1, ___$type_info_data+4160(%rip)
	movq	$1, ___$type_info_data+4168(%rip)
	movl	$1, ___$type_info_data+4176(%rip)
	movabsq	$1441151880758558746, %rcx
	movq	%rcx, ___$type_info_data+4184(%rip)
	leaq	"l_$enum_values-26"(%rip), %rcx
	movq	%rcx, ___$type_info_data+4216(%rip)
	leaq	"l_$enum_names-26"(%rip), %rcx
	movq	%rcx, ___$type_info_data+4200(%rip)
	movq	672(%rsp), %rcx
	movq	%rcx, ___$type_info_data+4192(%rip)
	movq	$3, ___$type_info_data+4224(%rip)
	movq	$3, ___$type_info_data+4208(%rip)
	movq	$21, ___$type_info_data+4312(%rip)
	movq	$0, ___$type_info_data+4320(%rip)
	movq	$1, ___$type_info_data+4328(%rip)
	movl	$1, ___$type_info_data+4336(%rip)
	movabsq	$3602879701896396827, %rdx
	movq	%rdx, ___$type_info_data+4344(%rip)
	leaq	___$type_info_data+4352(%rip), %rdi
	leaq	l_ggv$b(%rip), %rsi
	movq	664(%rsp), %rdx
	movq	%rax, 536(%rsp)
	callq	_memmove
	movq	$1, ___$type_info_data+4472(%rip)
	movq	$0, ___$type_info_data+4480(%rip)
	movq	$1, ___$type_info_data+4488(%rip)
	movl	$1, ___$type_info_data+4496(%rip)
	movabsq	$1297036692682702876, %rcx
	movq	%rcx, ___$type_info_data+4504(%rip)
	movq	$0, ___$type_info_data+4624(%rip)
	movq	$0, ___$type_info_data+4616(%rip)
	movq	$0, ___$type_info_data+4608(%rip)
	movq	$0, ___$type_info_data+4600(%rip)
	movq	$0, ___$type_info_data+4592(%rip)
	movq	$0, ___$type_info_data+4584(%rip)
	movq	$0, ___$type_info_data+4576(%rip)
	movq	$0, ___$type_info_data+4568(%rip)
	movq	$0, ___$type_info_data+4560(%rip)
	movq	$0, ___$type_info_data+4552(%rip)
	movq	$0, ___$type_info_data+4544(%rip)
	movq	$0, ___$type_info_data+4536(%rip)
	movq	$0, ___$type_info_data+4528(%rip)
	movq	$0, ___$type_info_data+4520(%rip)
	movq	$0, ___$type_info_data+4512(%rip)
	movq	$19, ___$type_info_data+4632(%rip)
	movq	$1, ___$type_info_data+4640(%rip)
	movq	$1, ___$type_info_data+4648(%rip)
	movl	$1, ___$type_info_data+4656(%rip)
	movabsq	$3602879701896396829, %rcx
	movq	%rcx, ___$type_info_data+4664(%rip)
	leaq	___$type_info_data+4672(%rip), %rdi
	leaq	l_ggv$c(%rip), %rsi
	movq	664(%rsp), %rdx
	movq	%rax, 528(%rsp)
	callq	_memmove
	movq	$1, ___$type_info_data+4792(%rip)
	movq	$1, ___$type_info_data+4800(%rip)
	movq	$1, ___$type_info_data+4808(%rip)
	movl	$1, ___$type_info_data+4816(%rip)
	movabsq	$1297036692682702878, %rcx
	movq	%rcx, ___$type_info_data+4824(%rip)
	movq	568(%rsp), %rcx
	movq	%rcx, ___$type_info_types_data+344(%rip)
	movq	576(%rsp), %rdx
	movq	%rdx, ___$type_info_names_data+240(%rip)
	movq	$10, ___$type_info_names_data+248(%rip)
	movq	$0, ___$type_info_offsets_data+120(%rip)
	movb	$0, ___$type_info_usings_data+15(%rip)
	leaq	___$type_info_data+4832(%rip), %rdi
	leaq	l_ggv$d(%rip), %rsi
	movq	656(%rsp), %rdx
	movq	%rax, 520(%rsp)
	callq	_memmove
	movq	$19, ___$type_info_data+4952(%rip)
	movq	$0, ___$type_info_data+4960(%rip)
	movq	$1, ___$type_info_data+4968(%rip)
	movl	$1, ___$type_info_data+4976(%rip)
	movabsq	$3602879701896396831, %rcx
	movq	%rcx, ___$type_info_data+4984(%rip)
	leaq	___$type_info_data+4992(%rip), %rdi
	leaq	l_ggv$e(%rip), %rsi
	movq	664(%rsp), %rdx
	movq	%rax, 512(%rsp)
	callq	_memmove
	movq	$1, ___$type_info_data+5112(%rip)
	movq	$0, ___$type_info_data+5120(%rip)
	movq	$1, ___$type_info_data+5128(%rip)
	movl	$1, ___$type_info_data+5136(%rip)
	movabsq	$3602879701896396832, %rcx
	movq	%rcx, ___$type_info_data+5144(%rip)
	leaq	___$type_info_data+5152(%rip), %rdi
	leaq	l_ggv$f(%rip), %rsi
	movq	664(%rsp), %rdx
	movq	%rax, 504(%rsp)
	callq	_memmove
	movq	$1, ___$type_info_data+5272(%rip)
	movq	$1, ___$type_info_data+5280(%rip)
	movq	$1, ___$type_info_data+5288(%rip)
	movl	$1, ___$type_info_data+5296(%rip)
	movabsq	$3602879701896396833, %rcx
	movq	%rcx, ___$type_info_data+5304(%rip)
	leaq	___$type_info_data+5312(%rip), %rdi
	leaq	l_ggv$10(%rip), %rsi
	movq	664(%rsp), %rdx
	movq	%rax, 496(%rsp)
	callq	_memmove
	movq	$1, ___$type_info_data+5432(%rip)
	movq	$1, ___$type_info_data+5440(%rip)
	movq	$1, ___$type_info_data+5448(%rip)
	movl	$1, ___$type_info_data+5456(%rip)
	movabsq	$1297036692682702882, %rcx
	movq	%rcx, ___$type_info_data+5464(%rip)
	movq	552(%rsp), %rcx
	movq	%rcx, ___$type_info_types_data+352(%rip)
	leaq	L_csbs$23(%rip), %rdx
	movq	%rdx, ___$type_info_names_data+256(%rip)
	movq	$10, ___$type_info_names_data+264(%rip)
	movq	$0, ___$type_info_offsets_data+128(%rip)
	movb	$0, ___$type_info_usings_data+16(%rip)
	leaq	___$type_info_data+5472(%rip), %rdi
	leaq	l_ggv$11(%rip), %rsi
	movq	656(%rsp), %rdx
	movq	%rax, 488(%rsp)
	callq	_memmove
	movq	$19, ___$type_info_data+5592(%rip)
	movq	$0, ___$type_info_data+5600(%rip)
	movq	$1, ___$type_info_data+5608(%rip)
	movl	$1, ___$type_info_data+5616(%rip)
	movabsq	$3602879701896396835, %rcx
	movq	%rcx, ___$type_info_data+5624(%rip)
	leaq	___$type_info_data+5632(%rip), %rdi
	leaq	l_ggv$12(%rip), %rsi
	movq	664(%rsp), %rdx
	movq	%rax, 480(%rsp)
	callq	_memmove
	movq	$1, ___$type_info_data+5752(%rip)
	movq	$0, ___$type_info_data+5760(%rip)
	movq	$1, ___$type_info_data+5768(%rip)
	movl	$1, ___$type_info_data+5776(%rip)
	movabsq	$3602879701896396836, %rcx
	movq	%rcx, ___$type_info_data+5784(%rip)
	leaq	___$type_info_data+5792(%rip), %rdi
	leaq	l_ggv$13(%rip), %rsi
	movq	664(%rsp), %rdx
	movq	%rax, 472(%rsp)
	callq	_memmove
	movq	$1, ___$type_info_data+5912(%rip)
	movq	$0, ___$type_info_data+5920(%rip)
	movq	$1, ___$type_info_data+5928(%rip)
	movl	$1, ___$type_info_data+5936(%rip)
	movabsq	$3602879701896396837, %rcx
	movq	%rcx, ___$type_info_data+5944(%rip)
	leaq	___$type_info_data+5952(%rip), %rdi
	leaq	l_ggv$14(%rip), %rsi
	movq	664(%rsp), %rdx
	movq	%rax, 464(%rsp)
	callq	_memmove
	movq	$1, ___$type_info_data+6072(%rip)
	movq	$8, ___$type_info_data+6080(%rip)
	movq	$8, ___$type_info_data+6088(%rip)
	movl	$1, ___$type_info_data+6096(%rip)
	movabsq	$3602879701896396838, %rcx
	movq	%rcx, ___$type_info_data+6104(%rip)
	leaq	___$type_info_data+6112(%rip), %rdi
	leaq	l_ggv$15(%rip), %rsi
	movq	664(%rsp), %rdx
	movq	%rax, 456(%rsp)
	callq	_memmove
	movq	$1, ___$type_info_data+6232(%rip)
	movq	$8, ___$type_info_data+6240(%rip)
	movq	$8, ___$type_info_data+6248(%rip)
	movl	$1, ___$type_info_data+6256(%rip)
	movabsq	$1297036692682702887, %rcx
	movq	%rcx, ___$type_info_data+6264(%rip)
	movq	696(%rsp), %rcx
	movq	%rcx, ___$type_info_types_data+360(%rip)
	leaq	L_csbs$28(%rip), %rdx
	movq	%rdx, ___$type_info_names_data+272(%rip)
	movq	$4, ___$type_info_names_data+280(%rip)
	movq	$0, ___$type_info_offsets_data+136(%rip)
	movb	$0, ___$type_info_usings_data+17(%rip)
	leaq	___$type_info_data+6272(%rip), %rdi
	leaq	l_ggv$16(%rip), %rsi
	movq	656(%rsp), %r8
	movq	%rdx, 448(%rsp)
	movq	%r8, %rdx
	movq	%rax, 440(%rsp)
	callq	_memmove
	movq	$19, ___$type_info_data+6392(%rip)
	movq	$8, ___$type_info_data+6400(%rip)
	movq	$8, ___$type_info_data+6408(%rip)
	movl	$1, ___$type_info_data+6416(%rip)
	movabsq	$3602879701896396840, %rcx
	movq	%rcx, ___$type_info_data+6424(%rip)
	leaq	___$type_info_data+6432(%rip), %rdi
	leaq	l_ggv$17(%rip), %rsi
	movq	664(%rsp), %rdx
	movq	%rax, 432(%rsp)
	callq	_memmove
	movq	$1, ___$type_info_data+6552(%rip)
	movq	$24, ___$type_info_data+6560(%rip)
	movq	$8, ___$type_info_data+6568(%rip)
	movl	$1, ___$type_info_data+6576(%rip)
	movabsq	$3602879701896396841, %rcx
	movq	%rcx, ___$type_info_data+6584(%rip)
	leaq	___$type_info_data+6592(%rip), %rdi
	leaq	l_ggv$18(%rip), %rsi
	movq	664(%rsp), %rdx
	movq	%rax, 424(%rsp)
	callq	_memmove
	movq	$1, ___$type_info_data+6712(%rip)
	movq	$24, ___$type_info_data+6720(%rip)
	movq	$8, ___$type_info_data+6728(%rip)
	movl	$1, ___$type_info_data+6736(%rip)
	movabsq	$1297036692682702890, %rcx
	movq	%rcx, ___$type_info_data+6744(%rip)
	movq	696(%rsp), %rcx
	movq	%rcx, ___$type_info_types_data+368(%rip)
	leaq	L_csbs$2b(%rip), %rdx
	movq	%rdx, ___$type_info_names_data+288(%rip)
	movq	$6, ___$type_info_names_data+296(%rip)
	movq	$0, ___$type_info_offsets_data+144(%rip)
	movb	$0, ___$type_info_usings_data+18(%rip)
	movq	%rcx, ___$type_info_types_data+376(%rip)
	leaq	L_csbs$2c(%rip), %rdx
	movq	%rdx, ___$type_info_names_data+304(%rip)
	movq	$7, ___$type_info_names_data+312(%rip)
	movq	$8, ___$type_info_offsets_data+152(%rip)
	movb	$0, ___$type_info_usings_data+19(%rip)
	movq	552(%rsp), %rdx
	movq	%rdx, ___$type_info_types_data+384(%rip)
	leaq	L_csbs$2d(%rip), %rsi
	movq	%rsi, ___$type_info_names_data+320(%rip)
	movq	$8, ___$type_info_names_data+328(%rip)
	movq	$16, ___$type_info_offsets_data+160(%rip)
	movb	$0, ___$type_info_usings_data+20(%rip)
	leaq	___$type_info_data+6880(%rip), %rsi
	movq	%rsi, ___$type_info_types_data+392(%rip)
	leaq	L_csbs$2e(%rip), %rsi
	movq	%rsi, ___$type_info_names_data+336(%rip)
	movq	$10, ___$type_info_names_data+344(%rip)
	movq	$17, ___$type_info_offsets_data+168(%rip)
	movb	$0, ___$type_info_usings_data+21(%rip)
	leaq	___$type_info_data+6752(%rip), %rdi
	leaq	l_ggv$19(%rip), %rsi
	movq	656(%rsp), %rdx
	movq	%rax, 416(%rsp)
	callq	_memmove
	movq	$19, ___$type_info_data+6872(%rip)
	movq	$1, ___$type_info_data+6880(%rip)
	movq	$1, ___$type_info_data+6888(%rip)
	movl	$1, ___$type_info_data+6896(%rip)
	movabsq	$3746994889972252715, %rcx
	movq	%rcx, ___$type_info_data+6904(%rip)
	leaq	___$type_info_data+6912(%rip), %rdi
	leaq	l_ggv$1a(%rip), %rsi
	movq	664(%rsp), %rdx
	movq	%rax, 408(%rsp)
	callq	_memmove
	movq	$1, ___$type_info_data+7032(%rip)
	movq	$1, ___$type_info_data+7040(%rip)
	movq	$1, ___$type_info_data+7048(%rip)
	movl	$1, ___$type_info_data+7056(%rip)
	movabsq	$1441151880758558764, %rcx
	movq	%rcx, ___$type_info_data+7064(%rip)
	leaq	"l_$enum_values-44"(%rip), %rcx
	movq	%rcx, ___$type_info_data+7096(%rip)
	leaq	"l_$enum_names-44"(%rip), %rcx
	movq	%rcx, ___$type_info_data+7080(%rip)
	movq	672(%rsp), %rcx
	movq	%rcx, ___$type_info_data+7072(%rip)
	movq	$10, ___$type_info_data+7104(%rip)
	movq	$10, ___$type_info_data+7088(%rip)
	movq	$21, ___$type_info_data+7192(%rip)
	movq	$24, ___$type_info_data+7200(%rip)
	movq	$8, ___$type_info_data+7208(%rip)
	movl	$1, ___$type_info_data+7216(%rip)
	movabsq	$3602879701896396845, %rdx
	movq	%rdx, ___$type_info_data+7224(%rip)
	leaq	___$type_info_data+7232(%rip), %rdi
	leaq	l_ggv$1b(%rip), %rsi
	movq	664(%rsp), %rdx
	movq	%rax, 400(%rsp)
	callq	_memmove
	movq	$1, ___$type_info_data+7352(%rip)
	movq	$24, ___$type_info_data+7360(%rip)
	movq	$8, ___$type_info_data+7368(%rip)
	movl	$1, ___$type_info_data+7376(%rip)
	movabsq	$1297036692682702894, %rcx
	movq	%rcx, ___$type_info_data+7384(%rip)
	movq	696(%rsp), %rcx
	movq	%rcx, ___$type_info_types_data+400(%rip)
	movq	448(%rsp), %rdx
	movq	%rdx, ___$type_info_names_data+352(%rip)
	movq	$4, ___$type_info_names_data+360(%rip)
	movq	$0, ___$type_info_offsets_data+176(%rip)
	movb	$0, ___$type_info_usings_data+22(%rip)
	movq	688(%rsp), %rsi
	movq	%rsi, ___$type_info_types_data+408(%rip)
	leaq	L_csbs$3b(%rip), %rdi
	movq	%rdi, ___$type_info_names_data+368(%rip)
	movq	$9, ___$type_info_names_data+376(%rip)
	movq	$8, ___$type_info_offsets_data+184(%rip)
	movb	$0, ___$type_info_usings_data+23(%rip)
	movq	%rsi, ___$type_info_types_data+416(%rip)
	leaq	L_csbs$3c(%rip), %r8
	movq	%r8, ___$type_info_names_data+384(%rip)
	movq	$5, ___$type_info_names_data+392(%rip)
	movq	$16, ___$type_info_offsets_data+192(%rip)
	movb	$0, ___$type_info_usings_data+24(%rip)
	leaq	___$type_info_data+7392(%rip), %r9
	leaq	l_ggv$1c(%rip), %rsi
	movq	%rdi, 392(%rsp)
	movq	%r9, %rdi
	movq	656(%rsp), %rdx
	movq	%rax, 384(%rsp)
	movq	%r8, 376(%rsp)
	callq	_memmove
	movq	$19, ___$type_info_data+7512(%rip)
	movq	$56, ___$type_info_data+7520(%rip)
	movq	$8, ___$type_info_data+7528(%rip)
	movl	$1, ___$type_info_data+7536(%rip)
	movabsq	$3602879701896396847, %rcx
	movq	%rcx, ___$type_info_data+7544(%rip)
	leaq	___$type_info_data+7552(%rip), %rdi
	leaq	l_ggv$1d(%rip), %rsi
	movq	664(%rsp), %rdx
	movq	%rax, 368(%rsp)
	callq	_memmove
	movq	$1, ___$type_info_data+7672(%rip)
	movq	$56, ___$type_info_data+7680(%rip)
	movq	$8, ___$type_info_data+7688(%rip)
	movl	$1, ___$type_info_data+7696(%rip)
	movabsq	$1297036692682702896, %rcx
	movq	%rcx, ___$type_info_data+7704(%rip)
	movq	696(%rsp), %rcx
	movq	%rcx, ___$type_info_types_data+424(%rip)
	movq	448(%rsp), %rdx
	movq	%rdx, ___$type_info_names_data+400(%rip)
	movq	$4, ___$type_info_names_data+408(%rip)
	movq	$0, ___$type_info_offsets_data+200(%rip)
	movb	$0, ___$type_info_usings_data+25(%rip)
	movq	%rcx, ___$type_info_types_data+432(%rip)
	leaq	L_csbs$3e(%rip), %rsi
	movq	%rsi, ___$type_info_names_data+416(%rip)
	movq	$5, ___$type_info_names_data+424(%rip)
	movq	$8, ___$type_info_offsets_data+208(%rip)
	movb	$0, ___$type_info_usings_data+26(%rip)
	movq	688(%rsp), %rsi
	movq	%rsi, ___$type_info_types_data+440(%rip)
	movq	392(%rsp), %rdi
	movq	%rdi, ___$type_info_names_data+432(%rip)
	movq	$9, ___$type_info_names_data+440(%rip)
	movq	$16, ___$type_info_offsets_data+216(%rip)
	movb	$0, ___$type_info_usings_data+27(%rip)
	movq	%rsi, ___$type_info_types_data+448(%rip)
	movq	376(%rsp), %r8
	movq	%r8, ___$type_info_names_data+448(%rip)
	movq	$5, ___$type_info_names_data+456(%rip)
	movq	$24, ___$type_info_offsets_data+224(%rip)
	movb	$0, ___$type_info_usings_data+28(%rip)
	leaq	___$type_info_data+7840(%rip), %r9
	movq	%r9, ___$type_info_types_data+456(%rip)
	leaq	L_csbs$3f(%rip), %r10
	movq	%r10, ___$type_info_names_data+464(%rip)
	movq	$9, ___$type_info_names_data+472(%rip)
	movq	$32, ___$type_info_offsets_data+232(%rip)
	movb	$0, ___$type_info_usings_data+29(%rip)
	movq	%r9, ___$type_info_types_data+464(%rip)
	leaq	L_csbs$40(%rip), %r10
	movq	%r10, ___$type_info_names_data+480(%rip)
	movq	$9, ___$type_info_names_data+488(%rip)
	movq	$40, ___$type_info_offsets_data+240(%rip)
	movb	$0, ___$type_info_usings_data+30(%rip)
	movq	552(%rsp), %r10
	movq	%r10, ___$type_info_types_data+472(%rip)
	leaq	L_csbs$41(%rip), %r11
	movq	%r11, ___$type_info_names_data+496(%rip)
	movq	$9, ___$type_info_names_data+504(%rip)
	movq	$48, ___$type_info_offsets_data+248(%rip)
	movb	$0, ___$type_info_usings_data+31(%rip)
	leaq	___$type_info_data+7712(%rip), %rdi
	leaq	l_ggv$1e(%rip), %rsi
	movq	656(%rsp), %rdx
	movq	%rax, 360(%rsp)
	movq	%r9, 352(%rsp)
	callq	_memmove
	movq	$19, ___$type_info_data+7832(%rip)
	movq	$8, ___$type_info_data+7840(%rip)
	movq	$8, ___$type_info_data+7848(%rip)
	movl	$1, ___$type_info_data+7856(%rip)
	movabsq	$6989586621679009841, %rcx
	movq	%rcx, ___$type_info_data+7864(%rip)
	leaq	___$type_info_data+7872(%rip), %rdi
	leaq	l_ggv$1f(%rip), %rsi
	movq	664(%rsp), %rdx
	movq	%rax, 344(%rsp)
	callq	_memmove
	movq	$1, ___$type_info_data+7992(%rip)
	movq	$8, ___$type_info_data+8000(%rip)
	leaq	___$type_info_data+8000(%rip), %rcx
	movq	$8, ___$type_info_data+8008(%rip)
	movl	$1, ___$type_info_data+8016(%rip)
	movabsq	$4683743612465315890, %rdx
	movq	%rdx, ___$type_info_data+8024(%rip)
	movb	$0, ___$type_info_data+8033(%rip)
	movb	$1, ___$type_info_data+8032(%rip)
	movq	$2, ___$type_info_data+8152(%rip)
	movq	$16, ___$type_info_data+8160(%rip)
	movq	$8, ___$type_info_data+8168(%rip)
	movl	$1, ___$type_info_data+8176(%rip)
	movabsq	$3602879701896396851, %rdx
	movq	%rdx, ___$type_info_data+8184(%rip)
	leaq	___$type_info_data+8192(%rip), %rdi
	leaq	l_ggv$20(%rip), %rsi
	movq	664(%rsp), %rdx
	movq	%rax, 336(%rsp)
	movq	%rcx, 328(%rsp)
	callq	_memmove
	movq	$1, ___$type_info_data+8312(%rip)
	movq	$16, ___$type_info_data+8320(%rip)
	movq	$8, ___$type_info_data+8328(%rip)
	movl	$1, ___$type_info_data+8336(%rip)
	movabsq	$1297036692682702900, %rcx
	movq	%rcx, ___$type_info_data+8344(%rip)
	movq	696(%rsp), %rcx
	movq	%rcx, ___$type_info_types_data+480(%rip)
	movq	448(%rsp), %rdx
	movq	%rdx, ___$type_info_names_data+512(%rip)
	movq	$4, ___$type_info_names_data+520(%rip)
	movq	$0, ___$type_info_offsets_data+256(%rip)
	movb	$0, ___$type_info_usings_data+32(%rip)
	movq	688(%rsp), %rsi
	movq	%rsi, ___$type_info_types_data+488(%rip)
	movq	392(%rsp), %rdi
	movq	%rdi, ___$type_info_names_data+528(%rip)
	movq	$9, ___$type_info_names_data+536(%rip)
	movq	$8, ___$type_info_offsets_data+264(%rip)
	movb	$0, ___$type_info_usings_data+33(%rip)
	leaq	___$type_info_data+8352(%rip), %rdi
	leaq	l_ggv$21(%rip), %rsi
	movq	656(%rsp), %rdx
	movq	%rax, 320(%rsp)
	callq	_memmove
	movq	$19, ___$type_info_data+8472(%rip)
	movq	$16, ___$type_info_data+8480(%rip)
	movq	$8, ___$type_info_data+8488(%rip)
	movl	$1, ___$type_info_data+8496(%rip)
	movabsq	$3602879701896396853, %rcx
	movq	%rcx, ___$type_info_data+8504(%rip)
	leaq	___$type_info_data+8512(%rip), %rdi
	leaq	l_ggv$22(%rip), %rsi
	movq	664(%rsp), %rdx
	movq	%rax, 312(%rsp)
	callq	_memmove
	movq	$1, ___$type_info_data+8632(%rip)
	movq	$32, ___$type_info_data+8640(%rip)
	movq	$8, ___$type_info_data+8648(%rip)
	movl	$0, ___$type_info_data+8656(%rip)
	movabsq	$3602879701896396854, %rcx
	movq	%rcx, ___$type_info_data+8664(%rip)
	leaq	___$type_info_data+8672(%rip), %rdi
	leaq	l_ggv$23(%rip), %rsi
	movq	664(%rsp), %rdx
	movq	%rax, 304(%rsp)
	callq	_memmove
	movq	$1, ___$type_info_data+8792(%rip)
	movq	$32, ___$type_info_data+8800(%rip)
	movq	$8, ___$type_info_data+8808(%rip)
	movl	$0, ___$type_info_data+8816(%rip)
	movabsq	$1297036692682702903, %rcx
	movq	%rcx, ___$type_info_data+8824(%rip)
	leaq	___$type_info_data+8960(%rip), %rcx
	movq	%rcx, ___$type_info_types_data+496(%rip)
	leaq	L_csbs$46(%rip), %rdx
	movq	%rdx, ___$type_info_names_data+544(%rip)
	movq	$5, ___$type_info_names_data+552(%rip)
	movq	$0, ___$type_info_offsets_data+272(%rip)
	movb	$0, ___$type_info_usings_data+34(%rip)
	leaq	___$type_info_data+9280(%rip), %rsi
	movq	%rsi, ___$type_info_types_data+504(%rip)
	leaq	L_csbs$47(%rip), %rdi
	movq	%rdi, ___$type_info_names_data+560(%rip)
	movq	$5, ___$type_info_names_data+568(%rip)
	movq	$16, ___$type_info_offsets_data+280(%rip)
	movb	$0, ___$type_info_usings_data+35(%rip)
	leaq	___$type_info_data+8832(%rip), %r8
	leaq	l_ggv$24(%rip), %r9
	movq	%rdi, 296(%rsp)
	movq	%r8, %rdi
	movq	%rsi, 288(%rsp)
	movq	%r9, %rsi
	movq	656(%rsp), %r8
	movq	%rdx, 280(%rsp)
	movq	%r8, %rdx
	movq	%rax, 272(%rsp)
	movq	%rcx, 264(%rsp)
	callq	_memmove
	movq	$19, ___$type_info_data+8952(%rip)
	movq	$16, ___$type_info_data+8960(%rip)
	movq	$8, ___$type_info_data+8968(%rip)
	movl	$0, ___$type_info_data+8976(%rip)
	movabsq	$1152921504606847032, %rcx
	movq	%rcx, ___$type_info_data+8984(%rip)
	movq	696(%rsp), %rcx
	movq	%rcx, ___$type_info_data+8992(%rip)
	movq	$8, ___$type_info_data+9000(%rip)
	movq	$17, ___$type_info_data+9112(%rip)
	movq	$16, ___$type_info_data+9280(%rip)
	movq	$8, ___$type_info_data+9288(%rip)
	movl	$0, ___$type_info_data+9296(%rip)
	movabsq	$1152921504606847034, %rdx
	movq	%rdx, ___$type_info_data+9304(%rip)
	movq	680(%rsp), %rdx
	movq	%rdx, ___$type_info_data+9312(%rip)
	movq	$16, ___$type_info_data+9320(%rip)
	movq	$17, ___$type_info_data+9432(%rip)
	movq	$120, ___$type_info_data+9600(%rip)
	movq	$8, ___$type_info_data+9608(%rip)
	movl	$0, ___$type_info_data+9616(%rip)
	movabsq	$3602879701896396860, %rsi
	movq	%rsi, ___$type_info_data+9624(%rip)
	leaq	___$type_info_data+9632(%rip), %rdi
	leaq	l_ggv$25(%rip), %rsi
	movq	664(%rsp), %rdx
	movq	%rax, 256(%rsp)
	callq	_memmove
	movq	$1, ___$type_info_data+9752(%rip)
	movq	$120, ___$type_info_data+9760(%rip)
	movq	$8, ___$type_info_data+9768(%rip)
	movl	$0, ___$type_info_data+9776(%rip)
	movabsq	$1297036692682702909, %rcx
	movq	%rcx, ___$type_info_data+9784(%rip)
	movq	264(%rsp), %rcx
	movq	%rcx, ___$type_info_types_data+512(%rip)
	movq	280(%rsp), %rdx
	movq	%rdx, ___$type_info_names_data+576(%rip)
	movq	$5, ___$type_info_names_data+584(%rip)
	movq	$0, ___$type_info_offsets_data+288(%rip)
	movb	$0, ___$type_info_usings_data+36(%rip)
	movq	288(%rsp), %rsi
	movq	%rsi, ___$type_info_types_data+520(%rip)
	movq	296(%rsp), %rdi
	movq	%rdi, ___$type_info_names_data+592(%rip)
	movq	$5, ___$type_info_names_data+600(%rip)
	movq	$16, ___$type_info_offsets_data+296(%rip)
	movb	$0, ___$type_info_usings_data+37(%rip)
	leaq	___$type_info_data+9920(%rip), %r8
	movq	%r8, ___$type_info_types_data+528(%rip)
	leaq	L_csbs$49(%rip), %r8
	movq	%r8, ___$type_info_names_data+608(%rip)
	movq	$7, ___$type_info_names_data+616(%rip)
	movq	$32, ___$type_info_offsets_data+304(%rip)
	movb	$0, ___$type_info_usings_data+38(%rip)
	leaq	___$type_info_data+10400(%rip), %r8
	movq	%r8, ___$type_info_types_data+536(%rip)
	leaq	L_csbs$4a(%rip), %r8
	movq	%r8, ___$type_info_names_data+624(%rip)
	movq	$6, ___$type_info_names_data+632(%rip)
	movq	$48, ___$type_info_offsets_data+312(%rip)
	movb	$0, ___$type_info_usings_data+39(%rip)
	movq	%rsi, ___$type_info_types_data+544(%rip)
	leaq	L_csbs$4b(%rip), %r8
	movq	%r8, ___$type_info_names_data+640(%rip)
	movq	$4, ___$type_info_names_data+648(%rip)
	movq	$64, ___$type_info_offsets_data+320(%rip)
	movb	$0, ___$type_info_usings_data+40(%rip)
	movq	552(%rsp), %r8
	movq	%r8, ___$type_info_types_data+552(%rip)
	leaq	L_csbs$4c(%rip), %r9
	movq	%r9, ___$type_info_names_data+656(%rip)
	movq	$9, ___$type_info_names_data+664(%rip)
	movq	$80, ___$type_info_offsets_data+328(%rip)
	movb	$0, ___$type_info_usings_data+41(%rip)
	movq	%r8, ___$type_info_types_data+560(%rip)
	leaq	L_csbs$4d(%rip), %r9
	movq	%r9, ___$type_info_names_data+672(%rip)
	movq	$12, ___$type_info_names_data+680(%rip)
	movq	$81, ___$type_info_offsets_data+336(%rip)
	movb	$0, ___$type_info_usings_data+42(%rip)
	movq	%r8, ___$type_info_types_data+568(%rip)
	leaq	L_csbs$4e(%rip), %r9
	movq	%r9, ___$type_info_names_data+688(%rip)
	movq	$10, ___$type_info_names_data+696(%rip)
	movq	$82, ___$type_info_offsets_data+344(%rip)
	movb	$0, ___$type_info_usings_data+43(%rip)
	movq	%r8, ___$type_info_types_data+576(%rip)
	leaq	L_csbs$4f(%rip), %r9
	movq	%r9, ___$type_info_names_data+704(%rip)
	movq	$12, ___$type_info_names_data+712(%rip)
	movq	$83, ___$type_info_offsets_data+352(%rip)
	movb	$0, ___$type_info_usings_data+44(%rip)
	leaq	___$type_info_data+10720(%rip), %r10
	movq	%r10, ___$type_info_types_data+584(%rip)
	leaq	L_csbs$50(%rip), %r11
	movq	%r11, ___$type_info_names_data+720(%rip)
	movq	$5, ___$type_info_names_data+728(%rip)
	movq	$88, ___$type_info_offsets_data+360(%rip)
	movb	$0, ___$type_info_usings_data+45(%rip)
	leaq	___$type_info_data+11360(%rip), %rbx
	movq	%rbx, ___$type_info_types_data+592(%rip)
	leaq	L_csbs$51(%rip), %rbx
	movq	%rbx, ___$type_info_names_data+736(%rip)
	movq	$8, ___$type_info_names_data+744(%rip)
	movq	$96, ___$type_info_offsets_data+368(%rip)
	movb	$0, ___$type_info_usings_data+46(%rip)
	movq	696(%rsp), %rbx
	movq	%rbx, ___$type_info_types_data+600(%rip)
	leaq	L_csbs$52(%rip), %r14
	movq	%r14, ___$type_info_names_data+752(%rip)
	movq	$13, ___$type_info_names_data+760(%rip)
	movq	$104, ___$type_info_offsets_data+376(%rip)
	movb	$0, ___$type_info_usings_data+47(%rip)
	movq	688(%rsp), %r14
	movq	%r14, ___$type_info_types_data+608(%rip)
	leaq	L_csbs$53(%rip), %r15
	movq	%r15, ___$type_info_names_data+768(%rip)
	movq	$7, ___$type_info_names_data+776(%rip)
	movq	$112, ___$type_info_offsets_data+384(%rip)
	movb	$0, ___$type_info_usings_data+48(%rip)
	leaq	___$type_info_data+9792(%rip), %rdi
	leaq	l_ggv$26(%rip), %rsi
	movq	656(%rsp), %rdx
	movq	%rax, 248(%rsp)
	movq	%r9, 240(%rsp)
	movq	%r10, 232(%rsp)
	movq	%r11, 224(%rsp)
	callq	_memmove
	movq	$19, ___$type_info_data+9912(%rip)
	movq	$16, ___$type_info_data+9920(%rip)
	movq	$8, ___$type_info_data+9928(%rip)
	movl	$0, ___$type_info_data+9936(%rip)
	movabsq	$1152921504606847038, %rcx
	movq	%rcx, ___$type_info_data+9944(%rip)
	leaq	___$type_info_data+10080(%rip), %rcx
	movq	%rcx, ___$type_info_data+9952(%rip)
	movq	$8, ___$type_info_data+9960(%rip)
	movq	$17, ___$type_info_data+10072(%rip)
	movq	$8, ___$type_info_data+10080(%rip)
	movq	$8, ___$type_info_data+10088(%rip)
	movl	$1, ___$type_info_data+10096(%rip)
	movabsq	$72057594037927999, %rdx
	movq	%rdx, ___$type_info_data+10104(%rip)
	movb	$0, ___$type_info_data+10113(%rip)
	movb	$0, ___$type_info_data+10112(%rip)
	movq	$2, ___$type_info_data+10232(%rip)
	movq	$8, ___$type_info_data+10240(%rip)
	movq	$8, ___$type_info_data+10248(%rip)
	movl	$1, ___$type_info_data+10256(%rip)
	movabsq	$720575940379279424, %rdx
	movq	%rdx, ___$type_info_data+10264(%rip)
	movq	%rcx, ___$type_info_data+10272(%rip)
	movq	$11, ___$type_info_data+10392(%rip)
	movq	$16, ___$type_info_data+10400(%rip)
	movq	$8, ___$type_info_data+10408(%rip)
	movl	$0, ___$type_info_data+10416(%rip)
	movabsq	$1152921504606847041, %rdx
	movq	%rdx, ___$type_info_data+10424(%rip)
	movq	552(%rsp), %rdx
	movq	%rdx, ___$type_info_data+10432(%rip)
	movq	$1, ___$type_info_data+10440(%rip)
	movq	$17, ___$type_info_data+10552(%rip)
	movq	$8, ___$type_info_data+10560(%rip)
	movq	$8, ___$type_info_data+10568(%rip)
	movl	$1, ___$type_info_data+10576(%rip)
	movabsq	$720575940379279426, %rsi
	movq	%rsi, ___$type_info_data+10584(%rip)
	movq	%rdx, ___$type_info_data+10592(%rip)
	movq	$11, ___$type_info_data+10712(%rip)
	movq	$8, ___$type_info_data+10720(%rip)
	movq	$8, ___$type_info_data+10728(%rip)
	movl	$1, ___$type_info_data+10736(%rip)
	movabsq	$3170534137668829251, %rsi
	movq	%rsi, ___$type_info_data+10744(%rip)
	leaq	___$type_info_data+10752(%rip), %rdi
	leaq	l_ggv$27(%rip), %rsi
	movq	664(%rsp), %rdx
	movq	%rax, 216(%rsp)
	movq	%rcx, 208(%rsp)
	callq	_memmove
	movq	$1, ___$type_info_data+10872(%rip)
	movq	$8, ___$type_info_data+10880(%rip)
	movq	$8, ___$type_info_data+10888(%rip)
	movl	$1, ___$type_info_data+10896(%rip)
	movabsq	$864691128455135300, %rcx
	movq	%rcx, ___$type_info_data+10904(%rip)
	leaq	___$type_info_data+11200(%rip), %rcx
	movq	%rcx, ___$type_info_data+10920(%rip)
	leaq	___$type_info_data+11040(%rip), %rdx
	movq	%rdx, ___$type_info_data+10912(%rip)
	movb	$0, ___$type_info_data+10935(%rip)
	movb	$0, ___$type_info_data+10934(%rip)
	movb	$0, ___$type_info_data+10933(%rip)
	movb	$0, ___$type_info_data+10932(%rip)
	movb	$0, ___$type_info_data+10931(%rip)
	movb	$0, ___$type_info_data+10930(%rip)
	movb	$2, ___$type_info_data+10929(%rip)
	movb	$0, ___$type_info_data+10928(%rip)
	movq	$13, ___$type_info_data+11032(%rip)
	movq	$16, ___$type_info_data+11040(%rip)
	movq	$8, ___$type_info_data+11048(%rip)
	movl	$0, ___$type_info_data+11056(%rip)
	movabsq	$1224979098644774981, %rdx
	movq	%rdx, ___$type_info_data+11064(%rip)
	leaq	___$type_info_data+320(%rip), %rdx
	movq	%rdx, ___$type_info_types_data+616(%rip)
	leaq	___$type_info_types_data+616(%rip), %rsi
	leaq	L_csbs$55(%rip), %rdi
	movq	%rdi, ___$type_info_names_data+784(%rip)
	movq	$1, ___$type_info_names_data+792(%rip)
	leaq	___$type_info_names_data+784(%rip), %r8
	movq	%rdx, ___$type_info_types_data+624(%rip)
	movq	%rdi, ___$type_info_names_data+800(%rip)
	movq	$1, ___$type_info_names_data+808(%rip)
	movq	%r8, ___$type_info_data+11088(%rip)
	movq	%rsi, ___$type_info_data+11072(%rip)
	movq	$2, ___$type_info_data+11096(%rip)
	movq	$2, ___$type_info_data+11080(%rip)
	movq	$18, ___$type_info_data+11192(%rip)
	movq	$8, ___$type_info_data+320(%rip)
	movq	$8, ___$type_info_data+328(%rip)
	movl	$1, ___$type_info_data+336(%rip)
	movabsq	$720575940379279362, %rsi
	movq	%rsi, ___$type_info_data+344(%rip)
	movq	$11, ___$type_info_data+472(%rip)
	movq	$1, ___$type_info_data+11200(%rip)
	movq	$1, ___$type_info_data+11208(%rip)
	movl	$0, ___$type_info_data+11216(%rip)
	movabsq	$1224979098644774982, %rsi
	movq	%rsi, ___$type_info_data+11224(%rip)
	movq	552(%rsp), %rsi
	movq	%rsi, ___$type_info_types_data+632(%rip)
	leaq	___$type_info_types_data+632(%rip), %rdi
	leaq	___$type_info_names_data+816(%rip), %r8
	movq	%r8, ___$type_info_data+11248(%rip)
	movq	%rdi, ___$type_info_data+11232(%rip)
	movq	$1, ___$type_info_data+11256(%rip)
	movq	$1, ___$type_info_data+11240(%rip)
	movq	$18, ___$type_info_data+11352(%rip)
	movq	$1, ___$type_info_data+11360(%rip)
	movq	$1, ___$type_info_data+11368(%rip)
	movl	$1, ___$type_info_data+11376(%rip)
	movabsq	$3746994889972252743, %rdi
	movq	%rdi, ___$type_info_data+11384(%rip)
	leaq	___$type_info_data+11392(%rip), %rdi
	leaq	l_ggv$28(%rip), %rsi
	movq	664(%rsp), %r8
	movq	%rdx, 200(%rsp)
	movq	%r8, %rdx
	movq	%rax, 192(%rsp)
	movq	%rcx, 184(%rsp)
	callq	_memmove
	movq	$1, ___$type_info_data+11512(%rip)
	movq	$1, ___$type_info_data+11520(%rip)
	movq	$1, ___$type_info_data+11528(%rip)
	movl	$1, ___$type_info_data+11536(%rip)
	movabsq	$1441151880758558792, %rcx
	movq	%rcx, ___$type_info_data+11544(%rip)
	leaq	"l_$enum_values-72"(%rip), %rcx
	movq	%rcx, ___$type_info_data+11576(%rip)
	leaq	"l_$enum_names-72"(%rip), %rcx
	movq	%rcx, ___$type_info_data+11560(%rip)
	movq	672(%rsp), %rcx
	movq	%rcx, ___$type_info_data+11552(%rip)
	movq	$4, ___$type_info_data+11584(%rip)
	movq	$4, ___$type_info_data+11568(%rip)
	movq	$21, ___$type_info_data+11672(%rip)
	movq	$48, ___$type_info_data+11680(%rip)
	movq	$8, ___$type_info_data+11688(%rip)
	movl	$0, ___$type_info_data+11696(%rip)
	movabsq	$3602879701896396873, %rdx
	movq	%rdx, ___$type_info_data+11704(%rip)
	leaq	___$type_info_data+11712(%rip), %rdi
	leaq	l_ggv$29(%rip), %rsi
	movq	664(%rsp), %rdx
	movq	%rax, 176(%rsp)
	callq	_memmove
	movq	$1, ___$type_info_data+11832(%rip)
	movq	$48, ___$type_info_data+11840(%rip)
	movq	$8, ___$type_info_data+11848(%rip)
	movl	$0, ___$type_info_data+11856(%rip)
	movabsq	$1297036692682702922, %rcx
	movq	%rcx, ___$type_info_data+11864(%rip)
	movq	264(%rsp), %rcx
	movq	%rcx, ___$type_info_types_data+640(%rip)
	leaq	L_csbs$5b(%rip), %rdx
	movq	%rdx, ___$type_info_names_data+832(%rip)
	movq	$8, ___$type_info_names_data+840(%rip)
	movq	$0, ___$type_info_offsets_data+392(%rip)
	movb	$0, ___$type_info_usings_data+49(%rip)
	movq	208(%rsp), %rdx
	movq	%rdx, ___$type_info_types_data+648(%rip)
	leaq	L_csbs$5c(%rip), %rsi
	movq	%rsi, ___$type_info_names_data+848(%rip)
	movq	$10, ___$type_info_names_data+856(%rip)
	movq	$16, ___$type_info_offsets_data+400(%rip)
	movb	$0, ___$type_info_usings_data+50(%rip)
	movq	696(%rsp), %rsi
	movq	%rsi, ___$type_info_types_data+656(%rip)
	leaq	L_csbs$5d(%rip), %rdi
	movq	%rdi, ___$type_info_names_data+864(%rip)
	movq	$8, ___$type_info_names_data+872(%rip)
	movq	$24, ___$type_info_offsets_data+408(%rip)
	movb	$0, ___$type_info_usings_data+51(%rip)
	movq	232(%rsp), %rdi
	movq	%rdi, ___$type_info_types_data+664(%rip)
	movq	224(%rsp), %r8
	movq	%r8, ___$type_info_names_data+880(%rip)
	movq	$5, ___$type_info_names_data+888(%rip)
	movq	$32, ___$type_info_offsets_data+416(%rip)
	movb	$0, ___$type_info_usings_data+52(%rip)
	movq	552(%rsp), %r9
	movq	%r9, ___$type_info_types_data+672(%rip)
	movq	240(%rsp), %r10
	movq	%r10, ___$type_info_names_data+896(%rip)
	movq	$12, ___$type_info_names_data+904(%rip)
	movq	$40, ___$type_info_offsets_data+424(%rip)
	movb	$0, ___$type_info_usings_data+53(%rip)
	movq	%r9, ___$type_info_types_data+680(%rip)
	leaq	L_csbs$5e(%rip), %r11
	movq	%r11, ___$type_info_names_data+912(%rip)
	movq	$6, ___$type_info_names_data+920(%rip)
	movq	$41, ___$type_info_offsets_data+432(%rip)
	movb	$0, ___$type_info_usings_data+54(%rip)
	movq	%r9, ___$type_info_types_data+688(%rip)
	leaq	L_csbs$5f(%rip), %r11
	movq	%r11, ___$type_info_names_data+928(%rip)
	movq	$10, ___$type_info_names_data+936(%rip)
	movq	$42, ___$type_info_offsets_data+440(%rip)
	movb	$0, ___$type_info_usings_data+55(%rip)
	leaq	___$type_info_data+11872(%rip), %rdi
	leaq	l_ggv$2a(%rip), %rsi
	movq	656(%rsp), %rdx
	movq	%rax, 168(%rsp)
	callq	_memmove
	movq	$19, ___$type_info_data+11992(%rip)
	movq	$40, ___$type_info_data+12000(%rip)
	movq	$8, ___$type_info_data+12008(%rip)
	movl	$0, ___$type_info_data+12016(%rip)
	movabsq	$3602879701896396875, %rcx
	movq	%rcx, ___$type_info_data+12024(%rip)
	leaq	___$type_info_data+12032(%rip), %rdi
	leaq	l_ggv$2b(%rip), %rsi
	movq	664(%rsp), %rdx
	movq	%rax, 160(%rsp)
	callq	_memmove
	movq	$1, ___$type_info_data+12152(%rip)
	movq	$40, ___$type_info_data+12160(%rip)
	movq	$8, ___$type_info_data+12168(%rip)
	movl	$0, ___$type_info_data+12176(%rip)
	movabsq	$1297036692682702924, %rcx
	movq	%rcx, ___$type_info_data+12184(%rip)
	movq	696(%rsp), %rcx
	movq	%rcx, ___$type_info_types_data+696(%rip)
	movq	616(%rsp), %rdx
	movq	%rdx, ___$type_info_names_data+944(%rip)
	movq	$4, ___$type_info_names_data+952(%rip)
	movq	$0, ___$type_info_offsets_data+448(%rip)
	movb	$0, ___$type_info_usings_data+56(%rip)
	movq	288(%rsp), %rsi
	movq	%rsi, ___$type_info_types_data+704(%rip)
	movq	296(%rsp), %rdi
	movq	%rdi, ___$type_info_names_data+960(%rip)
	movq	$5, ___$type_info_names_data+968(%rip)
	movq	$8, ___$type_info_offsets_data+456(%rip)
	movb	$0, ___$type_info_usings_data+57(%rip)
	leaq	___$type_info_data+12320(%rip), %r8
	movq	%r8, ___$type_info_types_data+712(%rip)
	leaq	L_csbs$61(%rip), %r8
	movq	%r8, ___$type_info_names_data+976(%rip)
	movq	$6, ___$type_info_names_data+984(%rip)
	movq	$24, ___$type_info_offsets_data+464(%rip)
	movb	$0, ___$type_info_usings_data+58(%rip)
	leaq	___$type_info_data+12192(%rip), %rdi
	leaq	l_ggv$2c(%rip), %rsi
	movq	656(%rsp), %rdx
	movq	%rax, 152(%rsp)
	callq	_memmove
	movq	$19, ___$type_info_data+12312(%rip)
	movq	$16, ___$type_info_data+12320(%rip)
	movq	$8, ___$type_info_data+12328(%rip)
	movl	$0, ___$type_info_data+12336(%rip)
	movabsq	$1152921504606847053, %rcx
	movq	%rcx, ___$type_info_data+12344(%rip)
	movq	352(%rsp), %rcx
	movq	%rcx, ___$type_info_data+12352(%rip)
	movq	$8, ___$type_info_data+12360(%rip)
	movq	$17, ___$type_info_data+12472(%rip)
	movq	$8, ___$type_info_data+12480(%rip)
	movq	$8, ___$type_info_data+12488(%rip)
	movl	$1, ___$type_info_data+12496(%rip)
	movabsq	$720575940379279438, %rdx
	movq	%rdx, ___$type_info_data+12504(%rip)
	movq	%rcx, ___$type_info_data+12512(%rip)
	movq	$11, ___$type_info_data+12632(%rip)
	movq	$24, ___$type_info_data+12640(%rip)
	movq	$8, ___$type_info_data+12648(%rip)
	movl	$1, ___$type_info_data+12656(%rip)
	movabsq	$3602879701896396879, %rdx
	movq	%rdx, ___$type_info_data+12664(%rip)
	leaq	___$type_info_data+12672(%rip), %rdi
	leaq	l_ggv$2d(%rip), %rsi
	movq	664(%rsp), %rdx
	movq	%rax, 144(%rsp)
	callq	_memmove
	movq	$1, ___$type_info_data+12792(%rip)
	movq	$24, ___$type_info_data+12800(%rip)
	movq	$8, ___$type_info_data+12808(%rip)
	movl	$1, ___$type_info_data+12816(%rip)
	movabsq	$1297036692682702928, %rcx
	movq	%rcx, ___$type_info_data+12824(%rip)
	movq	696(%rsp), %rcx
	movq	%rcx, ___$type_info_types_data+720(%rip)
	leaq	L_csbs$63(%rip), %rdx
	movq	%rdx, ___$type_info_names_data+992(%rip)
	movq	$3, ___$type_info_names_data+1000(%rip)
	movq	$0, ___$type_info_offsets_data+472(%rip)
	movb	$0, ___$type_info_usings_data+59(%rip)
	movq	%rcx, ___$type_info_types_data+728(%rip)
	leaq	L_csbs$64(%rip), %rsi
	movq	%rsi, ___$type_info_names_data+1008(%rip)
	movq	$5, ___$type_info_names_data+1016(%rip)
	movq	$8, ___$type_info_offsets_data+480(%rip)
	movb	$0, ___$type_info_usings_data+60(%rip)
	leaq	___$type_info_data+12960(%rip), %rsi
	movq	%rsi, ___$type_info_types_data+736(%rip)
	leaq	L_csbs$65(%rip), %rsi
	movq	%rsi, ___$type_info_names_data+1024(%rip)
	movq	$8, ___$type_info_names_data+1032(%rip)
	movq	$16, ___$type_info_offsets_data+488(%rip)
	movb	$0, ___$type_info_usings_data+61(%rip)
	leaq	___$type_info_data+12832(%rip), %rdi
	leaq	l_ggv$2e(%rip), %rsi
	movq	656(%rsp), %r8
	movq	%rdx, 136(%rsp)
	movq	%r8, %rdx
	movq	%rax, 128(%rsp)
	callq	_memmove
	movq	$19, ___$type_info_data+12952(%rip)
	movq	$8, ___$type_info_data+12960(%rip)
	movq	$8, ___$type_info_data+12968(%rip)
	movl	$1, ___$type_info_data+12976(%rip)
	movabsq	$720575940379279441, %rcx
	movq	%rcx, ___$type_info_data+12984(%rip)
	leaq	___$type_info_data+13120(%rip), %rcx
	movq	%rcx, ___$type_info_data+12992(%rip)
	movq	$11, ___$type_info_data+13112(%rip)
	movq	$32, ___$type_info_data+13120(%rip)
	movq	$8, ___$type_info_data+13128(%rip)
	movl	$1, ___$type_info_data+13136(%rip)
	movabsq	$3602879701896396882, %rcx
	movq	%rcx, ___$type_info_data+13144(%rip)
	leaq	___$type_info_data+13152(%rip), %rdi
	leaq	l_ggv$2f(%rip), %rsi
	movq	664(%rsp), %rdx
	movq	%rax, 120(%rsp)
	callq	_memmove
	movq	$1, ___$type_info_data+13272(%rip)
	movq	$32, ___$type_info_data+13280(%rip)
	movq	$8, ___$type_info_data+13288(%rip)
	movl	$1, ___$type_info_data+13296(%rip)
	movabsq	$1297036692682702931, %rcx
	movq	%rcx, ___$type_info_data+13304(%rip)
	leaq	___$type_info_data+13440(%rip), %rcx
	movq	%rcx, ___$type_info_types_data+744(%rip)
	leaq	L_csbs$68(%rip), %rdx
	movq	%rdx, ___$type_info_names_data+1040(%rip)
	movq	$2, ___$type_info_names_data+1048(%rip)
	movq	$0, ___$type_info_offsets_data+496(%rip)
	movb	$0, ___$type_info_usings_data+62(%rip)
	movq	%rcx, ___$type_info_types_data+752(%rip)
	leaq	L_csbs$69(%rip), %rcx
	movq	%rcx, ___$type_info_names_data+1056(%rip)
	movq	$2, ___$type_info_names_data+1064(%rip)
	movq	$8, ___$type_info_offsets_data+504(%rip)
	movb	$0, ___$type_info_usings_data+63(%rip)
	leaq	___$type_info_data+13920(%rip), %rcx
	movq	%rcx, ___$type_info_types_data+760(%rip)
	leaq	L_csbs$6a(%rip), %rcx
	movq	%rcx, ___$type_info_names_data+1072(%rip)
	movq	$10, ___$type_info_names_data+1080(%rip)
	movq	$16, ___$type_info_offsets_data+512(%rip)
	movb	$0, ___$type_info_usings_data+64(%rip)
	leaq	___$type_info_data+14400(%rip), %rcx
	movq	%rcx, ___$type_info_types_data+768(%rip)
	leaq	L_csbs$6b(%rip), %rcx
	movq	%rcx, ___$type_info_names_data+1088(%rip)
	movq	$9, ___$type_info_names_data+1096(%rip)
	movq	$24, ___$type_info_offsets_data+520(%rip)
	movb	$0, ___$type_info_usings_data+65(%rip)
	leaq	___$type_info_data+13312(%rip), %rdi
	leaq	l_ggv$30(%rip), %rsi
	movq	656(%rsp), %rdx
	movq	%rax, 112(%rsp)
	callq	_memmove
	movq	$19, ___$type_info_data+13432(%rip)
	movq	$8, ___$type_info_data+13440(%rip)
	movq	$8, ___$type_info_data+13448(%rip)
	movl	$1, ___$type_info_data+13456(%rip)
	movabsq	$720575940379279444, %rcx
	movq	%rcx, ___$type_info_data+13464(%rip)
	leaq	___$type_info_data+13600(%rip), %rcx
	movq	%rcx, ___$type_info_data+13472(%rip)
	movq	$11, ___$type_info_data+13592(%rip)
	movq	$32, ___$type_info_data+13600(%rip)
	movq	$8, ___$type_info_data+13608(%rip)
	movl	$1, ___$type_info_data+13616(%rip)
	movabsq	$3602879701896396885, %rcx
	movq	%rcx, ___$type_info_data+13624(%rip)
	leaq	___$type_info_data+13632(%rip), %rdi
	leaq	l_ggv$31(%rip), %rsi
	movq	664(%rsp), %rdx
	movq	%rax, 104(%rsp)
	callq	_memmove
	movq	$1, ___$type_info_data+13752(%rip)
	movq	$32, ___$type_info_data+13760(%rip)
	movq	$8, ___$type_info_data+13768(%rip)
	movl	$1, ___$type_info_data+13776(%rip)
	movabsq	$1297036692682702934, %rcx
	movq	%rcx, ___$type_info_data+13784(%rip)
	movq	208(%rsp), %rcx
	movq	%rcx, ___$type_info_types_data+776(%rip)
	leaq	L_csbs$6d(%rip), %rdx
	movq	%rdx, ___$type_info_names_data+1104(%rip)
	movq	$12, ___$type_info_names_data+1112(%rip)
	movq	$0, ___$type_info_offsets_data+528(%rip)
	movb	$0, ___$type_info_usings_data+66(%rip)
	movq	%rcx, ___$type_info_types_data+784(%rip)
	leaq	L_csbs$6e(%rip), %rdx
	movq	%rdx, ___$type_info_names_data+1120(%rip)
	movq	$13, ___$type_info_names_data+1128(%rip)
	movq	$8, ___$type_info_offsets_data+536(%rip)
	movb	$0, ___$type_info_usings_data+67(%rip)
	movq	%rcx, ___$type_info_types_data+792(%rip)
	leaq	L_csbs$6f(%rip), %rdx
	movq	%rdx, ___$type_info_names_data+1136(%rip)
	movq	$12, ___$type_info_names_data+1144(%rip)
	movq	$16, ___$type_info_offsets_data+544(%rip)
	movb	$0, ___$type_info_usings_data+68(%rip)
	movq	%rcx, ___$type_info_types_data+800(%rip)
	leaq	L_csbs$70(%rip), %rdx
	movq	%rdx, ___$type_info_names_data+1152(%rip)
	movq	$17, ___$type_info_names_data+1160(%rip)
	movq	$24, ___$type_info_offsets_data+552(%rip)
	movb	$0, ___$type_info_usings_data+69(%rip)
	leaq	___$type_info_data+13792(%rip), %rdi
	leaq	l_ggv$32(%rip), %rsi
	movq	656(%rsp), %rdx
	movq	%rax, 96(%rsp)
	callq	_memmove
	movq	$19, ___$type_info_data+13912(%rip)
	movq	$8, ___$type_info_data+13920(%rip)
	movq	$8, ___$type_info_data+13928(%rip)
	movl	$1, ___$type_info_data+13936(%rip)
	movabsq	$864691128455135319, %rcx
	movq	%rcx, ___$type_info_data+13944(%rip)
	leaq	___$type_info_data+14240(%rip), %rcx
	movq	%rcx, ___$type_info_data+13960(%rip)
	leaq	___$type_info_data+14080(%rip), %rcx
	movq	%rcx, ___$type_info_data+13952(%rip)
	movb	$0, ___$type_info_data+13975(%rip)
	movb	$0, ___$type_info_data+13974(%rip)
	movb	$0, ___$type_info_data+13973(%rip)
	movb	$0, ___$type_info_data+13972(%rip)
	movb	$0, ___$type_info_data+13971(%rip)
	movb	$0, ___$type_info_data+13970(%rip)
	movb	$2, ___$type_info_data+13969(%rip)
	movb	$0, ___$type_info_data+13968(%rip)
	movq	$13, ___$type_info_data+14072(%rip)
	movq	$16, ___$type_info_data+14080(%rip)
	movq	$8, ___$type_info_data+14088(%rip)
	movl	$0, ___$type_info_data+14096(%rip)
	movabsq	$1224979098644775000, %rcx
	movq	%rcx, ___$type_info_data+14104(%rip)
	movq	200(%rsp), %rcx
	movq	%rcx, ___$type_info_types_data+808(%rip)
	leaq	___$type_info_types_data+808(%rip), %rdx
	movq	136(%rsp), %rsi
	movq	%rsi, ___$type_info_names_data+1168(%rip)
	movq	$3, ___$type_info_names_data+1176(%rip)
	leaq	___$type_info_names_data+1168(%rip), %rdi
	movq	208(%rsp), %r8
	movq	%r8, ___$type_info_types_data+816(%rip)
	leaq	L_csbs$71(%rip), %r9
	movq	%r9, ___$type_info_names_data+1184(%rip)
	movq	$4, ___$type_info_names_data+1192(%rip)
	movq	%rdi, ___$type_info_data+14128(%rip)
	movq	%rdx, ___$type_info_data+14112(%rip)
	movq	$2, ___$type_info_data+14136(%rip)
	movq	$2, ___$type_info_data+14120(%rip)
	movq	$18, ___$type_info_data+14232(%rip)
	movq	$8, ___$type_info_data+14240(%rip)
	movq	$8, ___$type_info_data+14248(%rip)
	movl	$0, ___$type_info_data+14256(%rip)
	movabsq	$1224979098644775001, %rdx
	movq	%rdx, ___$type_info_data+14264(%rip)
	movq	%r8, ___$type_info_types_data+824(%rip)
	leaq	___$type_info_types_data+824(%rip), %rdx
	leaq	___$type_info_names_data+1200(%rip), %rdi
	movq	%rdi, ___$type_info_data+14288(%rip)
	movq	%rdx, ___$type_info_data+14272(%rip)
	movq	$1, ___$type_info_data+14296(%rip)
	movq	$1, ___$type_info_data+14280(%rip)
	movq	$18, ___$type_info_data+14392(%rip)
	movq	$8, ___$type_info_data+14400(%rip)
	movq	$8, ___$type_info_data+14408(%rip)
	movl	$1, ___$type_info_data+14416(%rip)
	movabsq	$864691128455135322, %rdx
	movq	%rdx, ___$type_info_data+14424(%rip)
	movq	184(%rsp), %rdx
	movq	%rdx, ___$type_info_data+14440(%rip)
	leaq	___$type_info_data+14560(%rip), %rdi
	movq	%rdi, ___$type_info_data+14432(%rip)
	movb	$0, ___$type_info_data+14455(%rip)
	movb	$0, ___$type_info_data+14454(%rip)
	movb	$0, ___$type_info_data+14453(%rip)
	movb	$0, ___$type_info_data+14452(%rip)
	movb	$0, ___$type_info_data+14451(%rip)
	movb	$0, ___$type_info_data+14450(%rip)
	movb	$2, ___$type_info_data+14449(%rip)
	movb	$0, ___$type_info_data+14448(%rip)
	movq	$13, ___$type_info_data+14552(%rip)
	movq	$16, ___$type_info_data+14560(%rip)
	movq	$8, ___$type_info_data+14568(%rip)
	movl	$0, ___$type_info_data+14576(%rip)
	movabsq	$1224979098644775003, %rdi
	movq	%rdi, ___$type_info_data+14584(%rip)
	movq	%rcx, ___$type_info_types_data+832(%rip)
	leaq	___$type_info_types_data+832(%rip), %rdi
	leaq	L_csbs$72(%rip), %r9
	movq	%r9, ___$type_info_names_data+1216(%rip)
	movq	$3, ___$type_info_names_data+1224(%rip)
	leaq	___$type_info_names_data+1216(%rip), %r9
	movq	%rcx, ___$type_info_types_data+840(%rip)
	leaq	L_csbs$73(%rip), %r10
	movq	%r10, ___$type_info_names_data+1232(%rip)
	movq	$3, ___$type_info_names_data+1240(%rip)
	movq	%r9, ___$type_info_data+14608(%rip)
	movq	%rdi, ___$type_info_data+14592(%rip)
	movq	$2, ___$type_info_data+14616(%rip)
	movq	$2, ___$type_info_data+14600(%rip)
	movq	$18, ___$type_info_data+14712(%rip)
	movq	$32, ___$type_info_data+14720(%rip)
	movq	$8, ___$type_info_data+14728(%rip)
	movl	$1, ___$type_info_data+14736(%rip)
	movabsq	$3602879701896396892, %rdi
	movq	%rdi, ___$type_info_data+14744(%rip)
	leaq	___$type_info_data+14752(%rip), %rdi
	leaq	l_ggv$33(%rip), %rsi
	movq	664(%rsp), %rdx
	movq	%rax, 88(%rsp)
	callq	_memmove
	movq	$1, ___$type_info_data+14872(%rip)
	movq	$32, ___$type_info_data+14880(%rip)
	movq	$8, ___$type_info_data+14888(%rip)
	movl	$1, ___$type_info_data+14896(%rip)
	movabsq	$1297036692682702941, %rcx
	movq	%rcx, ___$type_info_data+14904(%rip)
	movq	696(%rsp), %rcx
	movq	%rcx, ___$type_info_types_data+848(%rip)
	movq	448(%rsp), %rdx
	movq	%rdx, ___$type_info_names_data+1248(%rip)
	movq	$4, ___$type_info_names_data+1256(%rip)
	movq	$0, ___$type_info_offsets_data+560(%rip)
	movb	$0, ___$type_info_usings_data+70(%rip)
	movq	%rcx, ___$type_info_types_data+856(%rip)
	leaq	L_csbs$75(%rip), %rsi
	movq	%rsi, ___$type_info_names_data+1264(%rip)
	movq	$10, ___$type_info_names_data+1272(%rip)
	movq	$8, ___$type_info_offsets_data+568(%rip)
	movb	$0, ___$type_info_usings_data+71(%rip)
	movq	328(%rsp), %rsi
	movq	%rsi, ___$type_info_types_data+864(%rip)
	leaq	L_csbs$76(%rip), %rdi
	movq	%rdi, ___$type_info_names_data+1280(%rip)
	movq	$5, ___$type_info_names_data+1288(%rip)
	movq	$16, ___$type_info_offsets_data+576(%rip)
	movb	$0, ___$type_info_usings_data+72(%rip)
	movq	%rsi, ___$type_info_types_data+872(%rip)
	leaq	L_csbs$77(%rip), %rdi
	movq	%rdi, ___$type_info_names_data+1296(%rip)
	movq	$5, ___$type_info_names_data+1304(%rip)
	movq	$24, ___$type_info_offsets_data+584(%rip)
	movb	$0, ___$type_info_usings_data+73(%rip)
	leaq	___$type_info_data+14912(%rip), %rdi
	leaq	l_ggv$34(%rip), %rsi
	movq	656(%rsp), %rdx
	movq	%rax, 80(%rsp)
	callq	_memmove
	movq	$19, ___$type_info_data+15032(%rip)
	movq	$24, ___$type_info_data+15040(%rip)
	movq	$8, ___$type_info_data+15048(%rip)
	movl	$1, ___$type_info_data+15056(%rip)
	movabsq	$3602879701896396894, %rcx
	movq	%rcx, ___$type_info_data+15064(%rip)
	leaq	___$type_info_data+15072(%rip), %rdi
	leaq	l_ggv$35(%rip), %rsi
	movq	664(%rsp), %rdx
	movq	%rax, 72(%rsp)
	callq	_memmove
	movq	$1, ___$type_info_data+15192(%rip)
	movq	$16, ___$type_info_data+15200(%rip)
	movq	$8, ___$type_info_data+15208(%rip)
	movl	$1, ___$type_info_data+15216(%rip)
	movabsq	$3602879701896396895, %rcx
	movq	%rcx, ___$type_info_data+15224(%rip)
	leaq	___$type_info_data+15232(%rip), %rdi
	leaq	l_ggv$36(%rip), %rsi
	movq	664(%rsp), %rdx
	movq	%rax, 64(%rsp)
	callq	_memmove
	movq	$1, ___$type_info_data+15352(%rip)
	movq	$16, ___$type_info_data+15360(%rip)
	movq	$8, ___$type_info_data+15368(%rip)
	movl	$1, ___$type_info_data+15376(%rip)
	movabsq	$1297036692682702944, %rcx
	movq	%rcx, ___$type_info_data+15384(%rip)
	movq	696(%rsp), %rcx
	movq	%rcx, ___$type_info_types_data+880(%rip)
	leaq	L_csbs$7a(%rip), %rdx
	movq	%rdx, ___$type_info_names_data+1312(%rip)
	movq	$7, ___$type_info_names_data+1320(%rip)
	movq	$0, ___$type_info_offsets_data+592(%rip)
	movb	$0, ___$type_info_usings_data+74(%rip)
	movq	%rcx, ___$type_info_types_data+888(%rip)
	leaq	L_csbs$7b(%rip), %rdx
	movq	%rdx, ___$type_info_names_data+1328(%rip)
	movq	$12, ___$type_info_names_data+1336(%rip)
	movq	$8, ___$type_info_offsets_data+600(%rip)
	movb	$0, ___$type_info_usings_data+75(%rip)
	leaq	___$type_info_data+15392(%rip), %rdi
	leaq	l_ggv$37(%rip), %rsi
	movq	656(%rsp), %r8
	movq	%rdx, 56(%rsp)
	movq	%r8, %rdx
	movq	%rax, 48(%rsp)
	callq	_memmove
	movq	$19, ___$type_info_data+15512(%rip)
	movq	$16, ___$type_info_data+15520(%rip)
	movq	$8, ___$type_info_data+15528(%rip)
	movl	$1, ___$type_info_data+15536(%rip)
	movabsq	$3602879701896396897, %rcx
	movq	%rcx, ___$type_info_data+15544(%rip)
	leaq	___$type_info_data+15552(%rip), %rdi
	leaq	l_ggv$38(%rip), %rsi
	movq	664(%rsp), %rdx
	movq	%rax, 40(%rsp)
	callq	_memmove
	movq	$1, ___$type_info_data+15672(%rip)
	movq	$16, ___$type_info_data+15680(%rip)
	movq	$8, ___$type_info_data+15688(%rip)
	movl	$1, ___$type_info_data+15696(%rip)
	movabsq	$1297036692682702946, %rcx
	movq	%rcx, ___$type_info_data+15704(%rip)
	movq	696(%rsp), %rcx
	movq	%rcx, ___$type_info_types_data+896(%rip)
	leaq	L_csbs$7d(%rip), %rdx
	movq	%rdx, ___$type_info_names_data+1344(%rip)
	movq	$5, ___$type_info_names_data+1352(%rip)
	movq	$0, ___$type_info_offsets_data+608(%rip)
	movb	$0, ___$type_info_usings_data+76(%rip)
	movq	%rcx, ___$type_info_types_data+904(%rip)
	movq	56(%rsp), %rdx
	movq	%rdx, ___$type_info_names_data+1360(%rip)
	movq	$12, ___$type_info_names_data+1368(%rip)
	movq	$8, ___$type_info_offsets_data+616(%rip)
	movb	$0, ___$type_info_usings_data+77(%rip)
	leaq	___$type_info_data+15712(%rip), %rdi
	leaq	l_ggv$39(%rip), %rsi
	movq	656(%rsp), %rdx
	movq	%rax, 32(%rsp)
	callq	_memmove
	movq	$19, ___$type_info_data+15832(%rip)
	movq	$40, ___$type_info_data+15840(%rip)
	movq	$8, ___$type_info_data+15848(%rip)
	movl	$1, ___$type_info_data+15856(%rip)
	movabsq	$3602879701896396899, %rcx
	movq	%rcx, ___$type_info_data+15864(%rip)
	leaq	___$type_info_data+15872(%rip), %rdi
	leaq	l_ggv$3a(%rip), %rsi
	movq	664(%rsp), %rdx
	movq	%rax, 24(%rsp)
	callq	_memmove
	movq	$1, ___$type_info_data+15992(%rip)
	movq	$40, ___$type_info_data+16000(%rip)
	movq	$8, ___$type_info_data+16008(%rip)
	movl	$1, ___$type_info_data+16016(%rip)
	movabsq	$1297036692682702948, %rcx
	movq	%rcx, ___$type_info_data+16024(%rip)
	movq	696(%rsp), %rcx
	movq	%rcx, ___$type_info_types_data+912(%rip)
	movq	448(%rsp), %rdx
	movq	%rdx, ___$type_info_names_data+1376(%rip)
	movq	$4, ___$type_info_names_data+1384(%rip)
	movq	$0, ___$type_info_offsets_data+624(%rip)
	movb	$0, ___$type_info_usings_data+78(%rip)
	movq	688(%rsp), %rsi
	movq	%rsi, ___$type_info_types_data+920(%rip)
	movq	392(%rsp), %rdi
	movq	%rdi, ___$type_info_names_data+1392(%rip)
	movq	$9, ___$type_info_names_data+1400(%rip)
	movq	$8, ___$type_info_offsets_data+632(%rip)
	movb	$0, ___$type_info_usings_data+79(%rip)
	movq	%rsi, ___$type_info_types_data+928(%rip)
	leaq	L_csbs$7f(%rip), %r8
	movq	%r8, ___$type_info_names_data+1408(%rip)
	movq	$11, ___$type_info_names_data+1416(%rip)
	movq	$16, ___$type_info_offsets_data+640(%rip)
	movb	$0, ___$type_info_usings_data+80(%rip)
	movq	%rsi, ___$type_info_types_data+936(%rip)
	leaq	L_csbs$80(%rip), %r8
	movq	%r8, ___$type_info_names_data+1424(%rip)
	movq	$9, ___$type_info_names_data+1432(%rip)
	movq	$24, ___$type_info_offsets_data+648(%rip)
	movb	$0, ___$type_info_usings_data+81(%rip)
	movq	%rsi, ___$type_info_types_data+944(%rip)
	leaq	L_csbs$81(%rip), %r8
	movq	%r8, ___$type_info_names_data+1440(%rip)
	movq	$12, ___$type_info_names_data+1448(%rip)
	movq	$32, ___$type_info_offsets_data+656(%rip)
	movb	$0, ___$type_info_usings_data+82(%rip)
	leaq	___$type_info_data+16032(%rip), %rdi
	leaq	l_ggv$3b(%rip), %rsi
	movl	$120, %edx
	movq	%rax, 16(%rsp)
	callq	_memmove
	movq	$19, ___$type_info_data+16152(%rip)
	movq	$8, ___$type_info_data+16160(%rip)
	movq	$8, ___$type_info_data+16168(%rip)
	movl	$1, ___$type_info_data+16176(%rip)
	movabsq	$3602879701896396901, %rcx
	movq	%rcx, ___$type_info_data+16184(%rip)
	leaq	___$type_info_data+16192(%rip), %rdi
	leaq	l_ggv$3c(%rip), %rsi
	movl	$80, %edx
	movq	%rax, 8(%rsp)
	callq	_memmove
	movq	$1, ___$type_info_data+16312(%rip)
	movq	$16, ___$type_info_data+16320(%rip)
	movq	$8, ___$type_info_data+16328(%rip)
	movl	$0, ___$type_info_data+16336(%rip)
	movq	$102, ___$type_info_data+16344(%rip)
	movq	$9, ___$type_info_data+16472(%rip)
	addq	$704, %rsp
	popq	%rbx
	popq	%r14
	popq	%r15
	retq
Lfunc_end0:
	.cfi_endproc

	.globl	___$equal1
	.p2align	4, 0x90
___$equal1:
Lfunc_begin1:
	.cfi_startproc
	subq	$40, %rsp
	.cfi_def_cfa_offset 48
	movq	%rdi, 32(%rsp)
	movq	%rsi, 24(%rsp)
	jmp	LBB1_1
LBB1_1:
	movq	32(%rsp), %rax
	movq	24(%rsp), %rcx
	cmpq	%rcx, %rax
	movq	%rax, 16(%rsp)
	movq	%rcx, 8(%rsp)
	jne	LBB1_3
	movb	$1, %al
	addq	$40, %rsp
	retq
LBB1_3:
	movq	16(%rsp), %rax
	movq	(%rax), %rdi
	movq	8(%rax), %rsi
	movq	8(%rsp), %rcx
	movq	(%rcx), %rdx
	movq	8(%rcx), %rcx
	callq	_runtime.string_eq
	testb	$1, %al
	je	LBB1_8
	movq	16(%rsp), %rax
	movq	16(%rax), %rcx
	movq	8(%rsp), %rdx
	cmpq	16(%rdx), %rcx
	jne	LBB1_8
	movq	16(%rsp), %rax
	movq	24(%rax), %rdi
	movq	32(%rax), %rsi
	movq	8(%rsp), %rcx
	movq	24(%rcx), %rdx
	movq	32(%rcx), %rcx
	callq	_runtime.string_eq
	testb	$1, %al
	je	LBB1_8
	movq	16(%rsp), %rax
	addq	$40, %rax
	movq	8(%rsp), %rcx
	addq	$40, %rcx
	movq	%rax, %rdi
	movq	%rcx, %rsi
	callq	___$equal2
	testb	$1, %al
	je	LBB1_8
	movb	$1, %al
	addq	$40, %rsp
	retq
LBB1_8:
	xorl	%eax, %eax
	addq	$40, %rsp
	retq
Lfunc_end1:
	.cfi_endproc

	.p2align	4, 0x90
_runtime.string_eq:
Lfunc_begin2:
	.file	12 "/Users/tarvydas/tools/Odin/core/runtime/internal.odin"
	.loc	12 359 0
	.cfi_startproc
	subq	$136, %rsp
	.cfi_def_cfa_offset 144
	movq	%rcx, 32(%rsp)
	movq	%rdx, 24(%rsp)
Ltmp0:
	movq	%rsi, 16(%rsp)
	movq	%rdi, 8(%rsp)
Ltmp1:
	movq	8(%rsp), %rax
	movq	%rax, 120(%rsp)
	movq	16(%rsp), %rcx
	movq	%rcx, 128(%rsp)
	movq	32(%rsp), %rdx
	movq	%rdx, 112(%rsp)
	movq	24(%rsp), %rsi
	movq	%rsi, 104(%rsp)
Ltmp2:
	.loc	12 360 2 prologue_end
	movq	%rcx, 96(%rsp)
	movq	%rax, 88(%rsp)
	movq	88(%rsp), %rdi
	movq	96(%rsp), %r8
	movq	%r8, 80(%rsp)
	movq	%rdi, 72(%rsp)
	.loc	12 361 2
	movq	%rdx, 64(%rsp)
	movq	%rsi, 56(%rsp)
	movq	56(%rsp), %rdi
	movq	64(%rsp), %r8
	movq	%r8, 48(%rsp)
	movq	%rdi, 40(%rsp)
	.loc	12 362 2
	movq	80(%rsp), %rdi
	cmpq	48(%rsp), %rdi
	setne	%r9b
	andb	$1, %r9b
	cmpb	$0, %r9b
	je	LBB2_3
Ltmp3:
	.loc	12 0 2 is_stmt 0
	xorl	%eax, %eax
Ltmp4:
	.loc	12 363 3 is_stmt 1
	addq	$136, %rsp
	retq
Ltmp5:
LBB2_3:
	.loc	12 365 2
	movq	72(%rsp), %rdi
	movq	40(%rsp), %rsi
	movq	80(%rsp), %rdx
	callq	_runtime.memory_equal
	addq	$136, %rsp
	retq
Ltmp6:
Lfunc_end2:
	.cfi_endproc

	.globl	___$equal2
	.p2align	4, 0x90
___$equal2:
Lfunc_begin3:
	.cfi_startproc
	subq	$40, %rsp
	.cfi_def_cfa_offset 48
	movq	%rdi, 32(%rsp)
	movq	%rsi, 24(%rsp)
	jmp	LBB3_1
LBB3_1:
	movq	32(%rsp), %rax
	movq	24(%rsp), %rcx
	cmpq	%rcx, %rax
	movq	%rax, 16(%rsp)
	movq	%rcx, 8(%rsp)
	jne	LBB3_3
	movb	$1, %al
	addq	$40, %rsp
	retq
LBB3_3:
	movq	16(%rsp), %rax
	movq	(%rax), %rdi
	movq	8(%rax), %rsi
	movq	8(%rsp), %rcx
	movq	(%rcx), %rdx
	movq	8(%rcx), %rcx
	callq	_runtime.string_eq
	testb	$1, %al
	je	LBB3_8
	movq	16(%rsp), %rax
	movl	16(%rax), %ecx
	movq	8(%rsp), %rdx
	cmpl	16(%rdx), %ecx
	jne	LBB3_8
	movq	16(%rsp), %rax
	movl	20(%rax), %ecx
	movq	8(%rsp), %rdx
	cmpl	20(%rdx), %ecx
	jne	LBB3_8
	movq	16(%rsp), %rax
	movq	24(%rax), %rdi
	movq	32(%rax), %rsi
	movq	8(%rsp), %rcx
	movq	24(%rcx), %rdx
	movq	32(%rcx), %rcx
	callq	_runtime.string_eq
	testb	$1, %al
	je	LBB3_8
	movb	$1, %al
	addq	$40, %rsp
	retq
LBB3_8:
	xorl	%eax, %eax
	addq	$40, %rsp
	retq
Lfunc_end3:
	.cfi_endproc

	.p2align	4, 0x90
___$init_objc_names:
Lfunc_begin4:
	.cfi_startproc
	jmp	LBB4_1
LBB4_1:
	retq
Lfunc_end4:
	.cfi_endproc

	.globl	___$startup_runtime
	.p2align	4, 0x90
___$startup_runtime:
Lfunc_begin5:
	.cfi_startproc
	pushq	%rax
	.cfi_def_cfa_offset 16
	jmp	LBB5_1
LBB5_1:
	callq	___$startup_type_info
	callq	___$init_objc_names
	popq	%rax
	retq
Lfunc_end5:
	.cfi_endproc

	.globl	___$cleanup_runtime
	.p2align	4, 0x90
___$cleanup_runtime:
Lfunc_begin6:
	.cfi_startproc
	pushq	%rax
	.cfi_def_cfa_offset 16
	movq	%rdi, (%rsp)
	jmp	LBB6_1
LBB6_1:
	movq	(%rsp), %rax
	movq	%rax, %rdi
	callq	"_runtime._destroy_temp_allocator_fini-3133"
	popq	%rax
	retq
Lfunc_end6:
	.cfi_endproc

	.p2align	4, 0x90
"_runtime._destroy_temp_allocator_fini-3133":
Lfunc_begin7:
	.loc	3 59 0
	.cfi_startproc
	subq	$24, %rsp
	.cfi_def_cfa_offset 32
Ltmp7:
	movq	%rdi, 16(%rsp)
Ltmp8:
	.loc	3 59 41 prologue_end
	jmp	LBB7_1
Ltmp9:
LBB7_1:
	.loc	3 0 41 is_stmt 0
	movq	16(%rsp), %rax
Ltmp10:
	.loc	3 60 3 is_stmt 1
	movq	_runtime.global_default_temp_allocator_data@TLVP(%rip), %rdi
	movq	%rax, 8(%rsp)
	callq	*(%rdi)
	movq	%rax, %rdi
	movq	8(%rsp), %rsi
	callq	_runtime.default_temp_allocator_destroy
Ltmp11:
	.loc	3 61 2
	addq	$24, %rsp
	retq
Ltmp12:
Lfunc_end7:
	.cfi_endproc

	.p2align	4, 0x90
"_runtime.safe_add-419":
Lfunc_begin8:
	.loc	2 25 0
	.cfi_startproc
	movq	%rdi, -56(%rsp)
Ltmp13:
	movq	%rsi, -64(%rsp)
Ltmp14:
	movq	-56(%rsp), %rax
	movq	%rax, -8(%rsp)
	movq	-64(%rsp), %rcx
	movq	%rcx, -16(%rsp)
Ltmp15:
	.loc	2 26 2 prologue_end
	addq	%rcx, %rax
	movq	%rax, -24(%rsp)
	setb	-25(%rsp)
	.loc	2 27 2
	movq	-24(%rsp), %rax
	movb	-25(%rsp), %dl
	testb	%dl, %dl
	movq	%rax, -48(%rsp)
	sete	-40(%rsp)
	movq	-48(%rsp), %rax
	movq	-40(%rsp), %rdx
	retq
Ltmp16:
Lfunc_end8:
	.cfi_endproc

	.p2align	4, 0x90
_runtime.memory_block_alloc:
Lfunc_begin9:
	.loc	2 31 0
	.cfi_startproc
	pushq	%rbp
	.cfi_def_cfa_offset 16
	pushq	%r15
	.cfi_def_cfa_offset 24
	pushq	%r14
	.cfi_def_cfa_offset 32
	pushq	%rbx
	.cfi_def_cfa_offset 40
	subq	$296, %rsp
	.cfi_def_cfa_offset 336
	.cfi_offset %rbx, -40
	.cfi_offset %r14, -32
	.cfi_offset %r15, -24
	.cfi_offset %rbp, -16
	leaq	336(%rsp), %rax
Ltmp17:
	movq	%rcx, 136(%rsp)
Ltmp18:
	movq	%rdx, 128(%rsp)
Ltmp19:
	movq	%rsi, 120(%rsp)
	movq	%rdi, 112(%rsp)
	movq	%rax, 104(%rsp)
Ltmp20:
	movq	112(%rsp), %rax
	movq	%rax, 280(%rsp)
	movq	120(%rsp), %rcx
	movq	%rcx, 288(%rsp)
	movq	280(%rsp), %rdx
	movq	288(%rsp), %rsi
Ltmp21:
	movq	128(%rsp), %rdi
	movq	%rdi, 272(%rsp)
	movq	$0, 264(%rsp)
	movb	$0, 263(%rsp)
	movq	136(%rsp), %r8
Ltmp22:
	.loc	2 32 2 prologue_end
	addq	$48, %rdi
	movq	%rdi, 248(%rsp)
	.loc	2 33 2
	movq	$48, 240(%rsp)
	.loc	2 35 2
	movq	$16, 232(%rsp)
	.loc	2 36 2
	movq	248(%rsp), %rdi
	movq	232(%rsp), %r9
	movq	280(%rsp), %rcx
	movq	288(%rsp), %r10
	xorps	%xmm0, %xmm0
	movaps	%xmm0, 208(%rsp)
	movq	$0, 224(%rsp)
	movq	104(%rsp), %r11
	movq	32(%r11), %rbx
	movq	%rsp, %r14
	movq	%rbx, 32(%r14)
	movq	24(%r11), %rbx
	movq	%rbx, 24(%r14)
	movq	16(%r11), %rbx
	movq	%rbx, 16(%r14)
	movq	(%r11), %rbx
	movq	8(%r11), %r15
	movq	%r15, 8(%r14)
	movq	%rbx, (%r14)
	leaq	208(%rsp), %rbx
	movq	%rdi, 96(%rsp)
	movq	%rbx, %rdi
	movq	96(%rsp), %rbx
	movq	%rsi, 88(%rsp)
	movq	%rbx, %rsi
	movq	%rdx, 80(%rsp)
	movq	%r9, %rdx
	movq	%r8, 72(%rsp)
	movq	%r10, %r8
	movq	136(%rsp), %r9
	callq	_runtime.mem_alloc
	movq	208(%rsp), %rax
	movq	216(%rsp), %rcx
	movb	224(%rsp), %bpl
	cmpb	$0, %bpl
	movq	%rax, 64(%rsp)
	movq	%rcx, 56(%rsp)
	movb	%bpl, 55(%rsp)
	je	LBB9_3
Ltmp23:
	.loc	2 0 2 is_stmt 0
	movb	55(%rsp), %al
	.loc	2 36 2
	movb	%al, 263(%rsp)
	movq	264(%rsp), %rcx
	movb	263(%rsp), %dl
	movq	%rcx, 192(%rsp)
	movb	%dl, 200(%rsp)
	movq	192(%rsp), %rax
	movq	200(%rsp), %rdx
	addq	$296, %rsp
	popq	%rbx
	popq	%r14
	popq	%r15
	popq	%rbp
	retq
Ltmp24:
LBB9_3:
	.loc	2 0 2
	movq	64(%rsp), %rax
	.loc	2 36 2
	movq	%rax, 176(%rsp)
	movq	56(%rsp), %rcx
	movq	%rcx, 184(%rsp)
	.loc	2 37 8 is_stmt 1
	movq	176(%rsp), %rdx
	movq	%rdx, 264(%rsp)
	.loc	2 38 2
	movq	176(%rsp), %rdx
	movq	184(%rsp), %rsi
	addq	%rsi, %rdx
	movq	%rdx, 168(%rsp)
	movq	168(%rsp), %rdx
	movq	%rdx, 160(%rsp)
	.loc	2 40 18
	movq	264(%rsp), %rdx
	movq	88(%rsp), %rsi
	movq	%rsi, 16(%rdx)
	movq	80(%rsp), %rdi
	movq	%rdi, 8(%rdx)
	.loc	2 41 13
	movq	264(%rsp), %rdx
	movq	240(%rsp), %r8
	movq	%rdx, %r9
	addq	%r8, %r9
	movq	%r9, 24(%rdx)
	.loc	2 42 17
	movq	264(%rsp), %rdx
	movq	160(%rsp), %r8
	movq	24(%rdx), %r9
	subq	%r9, %r8
	movq	%r8, 40(%rdx)
	.loc	2 45 2
	movq	264(%rsp), %rdx
	movq	32(%rdx), %rdx
	testq	%rdx, %rdx
	sete	%r10b
	movq	l_ggv$3d+32(%rip), %rdx
	movq	%rsp, %r8
	movq	%rdx, 32(%r8)
	movq	l_ggv$3d+24(%rip), %rdx
	movq	%rdx, 24(%r8)
	movq	l_ggv$3d+16(%rip), %rdx
	movq	%rdx, 16(%r8)
	movq	l_ggv$3d+8(%rip), %rdx
	movq	%rdx, 8(%r8)
	movq	l_ggv$3d(%rip), %rdx
	movq	%rdx, (%r8)
	movzbl	%r10b, %r11d
	xorl	%ebx, %ebx
	movl	%ebx, %edx
	movl	%r11d, %edi
	movq	%rdx, %rsi
	movq	%rdx, 40(%rsp)
	movq	72(%rsp), %rcx
	callq	_runtime.assert
	.loc	2 46 2
	movq	264(%rsp), %rax
	movq	(%rax), %rax
	testq	%rax, %rax
	sete	%r10b
	movq	l_ggv$3e+32(%rip), %rax
	movq	%rsp, %rcx
	movq	%rax, 32(%rcx)
	movq	l_ggv$3e+24(%rip), %rax
	movq	%rax, 24(%rcx)
	movq	l_ggv$3e+16(%rip), %rax
	movq	%rax, 16(%rcx)
	movq	l_ggv$3e+8(%rip), %rax
	movq	%rax, 8(%rcx)
	movq	l_ggv$3e(%rip), %rax
	movq	%rax, (%rcx)
	movzbl	%r10b, %edi
	movq	40(%rsp), %rsi
	movq	40(%rsp), %rdx
	movq	72(%rsp), %rcx
	callq	_runtime.assert
	.loc	2 47 2
	movq	264(%rsp), %rax
	movb	263(%rsp), %r10b
	movq	%rax, 144(%rsp)
	movb	%r10b, 152(%rsp)
	movq	144(%rsp), %rax
	movq	152(%rsp), %rdx
	addq	$296, %rsp
	popq	%rbx
	popq	%r14
	popq	%r15
	popq	%rbp
	retq
Ltmp25:
Lfunc_end9:
	.cfi_endproc

	.p2align	4, 0x90
_runtime.memory_block_dealloc:
Lfunc_begin10:
	.loc	2 50 0
	.cfi_startproc
	subq	$104, %rsp
	.cfi_def_cfa_offset 112
	leaq	112(%rsp), %rax
Ltmp26:
	movq	%rsi, 72(%rsp)
Ltmp27:
	movq	%rdi, 64(%rsp)
Ltmp28:
	movq	%rax, 56(%rsp)
Ltmp29:
	movq	64(%rsp), %rax
	movq	%rax, 96(%rsp)
	movq	72(%rsp), %rcx
Ltmp30:
	.loc	2 51 2 prologue_end
	cmpq	$0, %rax
	setne	%dl
	andb	$1, %dl
	cmpb	$0, %dl
	movq	%rcx, 48(%rsp)
	je	LBB10_3
Ltmp31:
	.loc	2 52 3
	movq	96(%rsp), %rax
	movq	8(%rax), %rcx
	movq	16(%rax), %rax
	movq	%rax, 88(%rsp)
	movq	%rcx, 80(%rsp)
	.loc	2 53 3
	movq	80(%rsp), %rsi
	movq	88(%rsp), %rdx
	movq	64(%rsp), %rax
	movq	48(%rsp), %rcx
	movq	56(%rsp), %rdi
	movq	32(%rdi), %r8
	movq	%rsp, %r9
	movq	%r8, 32(%r9)
	movq	24(%rdi), %r8
	movq	%r8, 24(%r9)
	movq	16(%rdi), %r8
	movq	%r8, 16(%r9)
	movq	(%rdi), %r8
	movq	8(%rdi), %r10
	movq	%r10, 8(%r9)
	movq	%r8, (%r9)
	movq	%rax, %rdi
	callq	_runtime.mem_free
Ltmp32:
LBB10_3:
	.loc	2 55 1
	addq	$104, %rsp
	retq
Ltmp33:
Lfunc_end10:
	.cfi_endproc

	.p2align	4, 0x90
_runtime.alloc_from_memory_block:
Lfunc_begin11:
	.loc	2 58 0
	.cfi_startproc
	subq	$200, %rsp
	.cfi_def_cfa_offset 208
	movq	%rdi, %rax
Ltmp34:
	movq	%rcx, 48(%rsp)
Ltmp35:
	movq	%rdx, 40(%rsp)
Ltmp36:
	movq	%rsi, 32(%rsp)
Ltmp37:
	movq	%rdi, 24(%rsp)
	movq	%rax, 16(%rsp)
Ltmp38:
	xorl	%esi, %esi
	movq	32(%rsp), %rax
	movq	%rax, 192(%rsp)
	movq	40(%rsp), %rcx
	movq	%rcx, 184(%rsp)
	movq	48(%rsp), %rdx
	movq	%rdx, 176(%rsp)
	leaq	160(%rsp), %rdi
Ltmp39:
	movl	$16, %edx
	callq	_memset
Ltmp40:
	movb	$0, 159(%rsp)
	movq	32(%rsp), %rax
Ltmp41:
	.loc	2 69 2 prologue_end
	cmpq	$0, %rax
	sete	%r8b
	andb	$1, %r8b
	cmpb	$0, %r8b
	je	LBB11_3
Ltmp42:
	.loc	2 70 3
	movq	$0, 168(%rsp)
	movq	$0, 160(%rsp)
	movb	$1, 159(%rsp)
	movq	24(%rsp), %rax
	movq	$0, 8(%rax)
	movq	$0, (%rax)
	movb	$1, 16(%rax)
	movq	16(%rsp), %rax
	addq	$200, %rsp
	retq
Ltmp43:
LBB11_3:
	.loc	2 0 3 is_stmt 0
	movq	32(%rsp), %rdi
	movq	48(%rsp), %rsi
	.loc	2 72 2 is_stmt 1
	callq	"_runtime.alloc_from_memory_block.calc_alignment_offset-0"
	movq	%rax, 144(%rsp)
	.loc	2 73 2
	movq	144(%rsp), %rsi
	movq	40(%rsp), %rdi
	callq	"_runtime.safe_add-419"
	movq	%rdx, 136(%rsp)
	movq	%rax, 128(%rsp)
	movq	128(%rsp), %rax
	movb	136(%rsp), %cl
	movq	%rax, 120(%rsp)
	movb	%cl, 119(%rsp)
	.loc	2 74 2
	cmpb	$0, 119(%rsp)
	jne	LBB11_5
Ltmp44:
	.loc	2 75 7
	movb	$1, 159(%rsp)
	.loc	2 76 3
	movq	160(%rsp), %rax
	movq	168(%rsp), %rcx
	movb	159(%rsp), %dl
	movq	%rcx, 168(%rsp)
	movq	%rax, 160(%rsp)
	movb	%dl, 159(%rsp)
	movq	24(%rsp), %rsi
	movq	%rcx, 8(%rsi)
	movq	%rax, (%rsi)
	movb	%dl, 16(%rsi)
	movq	16(%rsp), %rax
	addq	$200, %rsp
	retq
Ltmp45:
LBB11_5:
	.loc	2 79 2
	jmp	LBB11_6
Ltmp46:
LBB11_6:
	.loc	2 79 5 is_stmt 0
	movq	192(%rsp), %rax
	movq	32(%rax), %rdi
	movq	120(%rsp), %rsi
	callq	"_runtime.safe_add-419"
	movq	%rdx, 104(%rsp)
	movq	%rax, 96(%rsp)
	movq	96(%rsp), %rax
	movb	104(%rsp), %cl
	movq	%rax, 88(%rsp)
	movb	%cl, 87(%rsp)
	cmpb	$0, 87(%rsp)
	je	LBB11_8
Ltmp47:
	movq	88(%rsp), %rax
	movq	192(%rsp), %rcx
	cmpq	40(%rcx), %rax
	seta	%dl
	andb	$1, %dl
	cmpb	$0, %dl
	je	LBB11_9
Ltmp48:
LBB11_8:
	.loc	2 80 7 is_stmt 1
	movb	$1, 159(%rsp)
	.loc	2 81 3
	movq	160(%rsp), %rax
	movq	168(%rsp), %rcx
	movb	159(%rsp), %dl
	movq	%rcx, 168(%rsp)
	movq	%rax, 160(%rsp)
	movb	%dl, 159(%rsp)
	movq	24(%rsp), %rsi
	movq	%rcx, 8(%rsi)
	movq	%rax, (%rsi)
	movb	%dl, 16(%rsi)
	movq	16(%rsp), %rax
	addq	$200, %rsp
	retq
Ltmp49:
LBB11_9:
	.loc	2 83 7
	movq	192(%rsp), %rax
	movq	24(%rax), %rcx
	movq	32(%rax), %rax
	movq	144(%rsp), %rdx
	addq	%rdx, %rax
	addq	%rax, %rcx
	movq	%rcx, 72(%rsp)
	movq	72(%rsp), %rax
	leaq	L_csbs$84(%rip), %rdi
	xorl	%esi, %esi
	movl	%esi, %r8d
	movl	$69, %esi
	movl	$83, %edx
	movl	$49, %ecx
	movq	40(%rsp), %r9
	movq	%rax, 8(%rsp)
	callq	_runtime.multi_pointer_slice_expr_error
	movq	8(%rsp), %rax
	movq	%rax, 56(%rsp)
	movq	40(%rsp), %rax
	movq	%rax, 64(%rsp)
	movq	56(%rsp), %rsi
	movq	64(%rsp), %rdi
	movq	%rdi, 168(%rsp)
	movq	%rsi, 160(%rsp)
	.loc	2 84 13
	movq	192(%rsp), %rsi
	movq	120(%rsp), %rdi
	movq	32(%rsi), %r8
	addq	%rdi, %r8
	movq	%r8, 32(%rsi)
	.loc	2 85 2
	movq	160(%rsp), %rsi
	movq	168(%rsp), %rdi
	movb	159(%rsp), %r10b
	movq	%rdi, 168(%rsp)
	movq	%rsi, 160(%rsp)
	movb	%r10b, 159(%rsp)
	movq	24(%rsp), %r8
	movq	%rdi, 8(%r8)
	movq	%rsi, (%r8)
	movb	%r10b, 16(%r8)
	movq	16(%rsp), %rax
	addq	$200, %rsp
	retq
Ltmp50:
Lfunc_end11:
	.cfi_endproc

	.p2align	4, 0x90
_runtime.arena_alloc:
Lfunc_begin12:
	.loc	2 89 0
	.cfi_startproc
	subq	$312, %rsp
	.cfi_def_cfa_offset 320
	movq	%rdi, %rax
	leaq	320(%rsp), %r9
Ltmp51:
	movq	%r8, 152(%rsp)
Ltmp52:
	movq	%rcx, 144(%rsp)
Ltmp53:
	movq	%rdx, 136(%rsp)
Ltmp54:
	movq	%rsi, 128(%rsp)
Ltmp55:
	movq	%rdi, 120(%rsp)
	movq	%rax, 112(%rsp)
	movq	%r9, 104(%rsp)
Ltmp56:
	xorl	%esi, %esi
	movq	128(%rsp), %rax
	movq	%rax, 304(%rsp)
	movq	136(%rsp), %rcx
	movq	%rcx, 296(%rsp)
	movq	144(%rsp), %rdx
	movq	%rdx, 288(%rsp)
	leaq	272(%rsp), %rdi
Ltmp57:
	movl	$16, %edx
	callq	_memset
Ltmp58:
	movb	$0, 271(%rsp)
	movq	152(%rsp), %rax
	movq	144(%rsp), %rcx
Ltmp59:
	.loc	2 99 2 prologue_end
	subq	$1, %rcx
	movq	144(%rsp), %rdx
	andq	%rcx, %rdx
	cmpq	$0, %rdx
	sete	%r8b
	andb	$1, %r8b
	cmpb	$0, %r8b
	setne	%r8b
	movq	%rax, %rcx
	movq	104(%rsp), %rdx
	movq	32(%rdx), %rdi
	movq	%rsp, %r9
	movq	%rdi, 32(%r9)
	movq	24(%rdx), %rdi
	movq	%rdi, 24(%r9)
	movq	16(%rdx), %rdi
	movq	%rdi, 16(%r9)
	movq	(%rdx), %rdi
	movq	8(%rdx), %r10
	movq	%r10, 8(%r9)
	movq	%rdi, (%r9)
	movzbl	%r8b, %esi
	andl	$1, %esi
	leaq	L_csbs$86(%rip), %rdi
	movl	$26, %edx
	movq	%rdi, 96(%rsp)
	movl	%esi, %edi
	movq	96(%rsp), %rsi
	movq	%rax, 88(%rsp)
	callq	_runtime.assert
	movq	136(%rsp), %rax
	.loc	2 101 2
	movq	%rax, 256(%rsp)
	.loc	2 102 2
	cmpq	$0, 256(%rsp)
	sete	%r8b
	andb	$1, %r8b
	cmpb	$0, %r8b
	je	LBB12_3
Ltmp60:
	.loc	2 103 3
	movq	272(%rsp), %rax
	movq	280(%rsp), %rcx
	movb	271(%rsp), %dl
	movq	%rcx, 280(%rsp)
	movq	%rax, 272(%rsp)
	movb	%dl, 271(%rsp)
	movq	120(%rsp), %rsi
	movq	%rcx, 8(%rsi)
	movq	%rax, (%rsi)
	movb	%dl, 16(%rsi)
	movq	112(%rsp), %rax
	addq	$312, %rsp
	retq
Ltmp61:
LBB12_3:
	.loc	2 106 2
	movq	304(%rsp), %rax
	cmpq	$0, 16(%rax)
	sete	%cl
	andb	$1, %cl
	cmpb	$0, %cl
	jne	LBB12_8
Ltmp62:
	movq	304(%rsp), %rax
	movq	16(%rax), %rax
	movq	32(%rax), %rdi
	movq	256(%rsp), %rsi
	callq	"_runtime.safe_add-419"
	movq	%rdx, 248(%rsp)
	movq	%rax, 240(%rsp)
	movq	240(%rsp), %rax
	testb	$1, 248(%rsp)
	movq	%rax, 80(%rsp)
	je	LBB12_6
Ltmp63:
	.loc	2 0 2 is_stmt 0
	movq	80(%rsp), %rax
	movq	%rax, 72(%rsp)
	.loc	2 106 2
	jmp	LBB12_7
Ltmp64:
LBB12_6:
	.loc	2 0 2
	xorl	%eax, %eax
	movl	%eax, %ecx
	movq	%rcx, 72(%rsp)
	.loc	2 106 2
	jmp	LBB12_7
Ltmp65:
LBB12_7:
	.loc	2 0 2
	movq	72(%rsp), %rax
	.loc	2 106 2
	movq	304(%rsp), %rcx
	movq	16(%rcx), %rcx
	cmpq	40(%rcx), %rax
	seta	%dl
	andb	$1, %dl
	cmpb	$0, %dl
	je	LBB12_15
Ltmp66:
LBB12_8:
	.loc	2 107 8 is_stmt 1
	movq	256(%rsp), %rdi
	movq	144(%rsp), %rsi
	callq	"_runtime.arena_alloc.align_forward_uint-0"
	movq	%rax, 256(%rsp)
	.loc	2 108 3
	movq	304(%rsp), %rax
	cmpq	$0, 40(%rax)
	sete	%cl
	andb	$1, %cl
	cmpb	$0, %cl
	je	LBB12_10
Ltmp67:
	.loc	2 109 29
	movq	304(%rsp), %rax
	movq	$4194304, 40(%rax)
Ltmp68:
LBB12_10:
	.loc	2 112 3
	movq	256(%rsp), %rax
	movq	304(%rsp), %rcx
	movq	40(%rcx), %rcx
	cmpq	%rcx, %rax
	cmovaq	%rax, %rcx
	movq	%rcx, 232(%rsp)
	.loc	2 114 3
	movq	304(%rsp), %rax
	cmpq	$0, (%rax)
	sete	%dl
	andb	$1, %dl
	cmpb	$0, %dl
	je	LBB12_12
Ltmp69:
	.loc	2 115 28
	movq	304(%rsp), %rax
	movq	88(%rsp), %rdi
	movq	%rax, 64(%rsp)
	callq	_runtime.default_allocator
	movq	%rdx, 224(%rsp)
	movq	%rax, 216(%rsp)
	movq	216(%rsp), %rax
	movq	224(%rsp), %rcx
	movq	64(%rsp), %rdx
	movq	%rcx, 8(%rdx)
	movq	%rax, (%rdx)
Ltmp70:
LBB12_12:
	.loc	2 118 3
	movq	304(%rsp), %rax
	movq	(%rax), %rdi
	movq	8(%rax), %rsi
	movq	232(%rsp), %rdx
	movq	104(%rsp), %rax
	movq	32(%rax), %rcx
	movq	%rsp, %r8
	movq	%rcx, 32(%r8)
	movq	24(%rax), %rcx
	movq	%rcx, 24(%r8)
	movq	16(%rax), %rcx
	movq	%rcx, 16(%r8)
	movq	(%rax), %rcx
	movq	8(%rax), %r9
	movq	%r9, 8(%r8)
	movq	%rcx, (%r8)
	movq	88(%rsp), %rcx
	callq	_runtime.memory_block_alloc
	movq	%rdx, 208(%rsp)
	movq	%rax, 200(%rsp)
	movq	200(%rsp), %rax
	movb	208(%rsp), %r10b
	cmpb	$0, %r10b
	movq	%rax, 56(%rsp)
	movb	%r10b, 55(%rsp)
	je	LBB12_14
Ltmp71:
	.loc	2 0 3 is_stmt 0
	movb	55(%rsp), %al
	.loc	2 118 3
	movb	%al, 271(%rsp)
	movq	272(%rsp), %rcx
	movq	280(%rsp), %rdx
	movb	271(%rsp), %sil
	movq	%rdx, 280(%rsp)
	movq	%rcx, 272(%rsp)
	movb	%sil, 271(%rsp)
	movq	120(%rsp), %rdi
	movq	%rdx, 8(%rdi)
	movq	%rcx, (%rdi)
	movb	%sil, 16(%rdi)
	movq	112(%rsp), %rax
	addq	$312, %rsp
	retq
Ltmp72:
LBB12_14:
	.loc	2 0 3
	movq	56(%rsp), %rax
	.loc	2 118 3
	movq	%rax, 192(%rsp)
	.loc	2 119 18 is_stmt 1
	movq	192(%rsp), %rcx
	movq	304(%rsp), %rdx
	movq	16(%rdx), %rdx
	movq	%rdx, (%rcx)
	.loc	2 120 20
	movq	304(%rsp), %rcx
	movq	192(%rsp), %rdx
	movq	%rdx, 16(%rcx)
	.loc	2 121 24
	movq	304(%rsp), %rcx
	movq	192(%rsp), %rdx
	movq	40(%rdx), %rdx
	addq	32(%rcx), %rdx
	movq	%rdx, 32(%rcx)
Ltmp73:
LBB12_15:
	.loc	2 124 2
	movq	304(%rsp), %rax
	movq	16(%rax), %rax
	movq	32(%rax), %rax
	movq	%rax, 184(%rsp)
	.loc	2 125 12
	movq	304(%rsp), %rax
	movq	16(%rax), %rsi
	movq	256(%rsp), %rdx
	xorps	%xmm0, %xmm0
	movaps	%xmm0, 160(%rsp)
	movq	$0, 176(%rsp)
	leaq	160(%rsp), %rdi
	movq	144(%rsp), %rcx
	movq	88(%rsp), %r8
	callq	_runtime.alloc_from_memory_block
	movb	176(%rsp), %r9b
	movq	160(%rsp), %rax
	movq	168(%rsp), %rcx
	movq	%rcx, 280(%rsp)
	movq	%rax, 272(%rsp)
	movb	%r9b, 271(%rsp)
	.loc	2 126 19
	movq	304(%rsp), %rax
	movq	16(%rax), %rcx
	movq	24(%rax), %rdx
	movq	32(%rcx), %rcx
	movq	184(%rsp), %rsi
	subq	%rsi, %rcx
	addq	%rcx, %rdx
	movq	%rdx, 24(%rax)
	.loc	2 127 2
	movq	272(%rsp), %rax
	movq	280(%rsp), %rcx
	movb	271(%rsp), %r9b
	movq	%rcx, 280(%rsp)
	movq	%rax, 272(%rsp)
	movb	%r9b, 271(%rsp)
	movq	120(%rsp), %rdx
	movq	%rcx, 8(%rdx)
	movq	%rax, (%rdx)
	movb	%r9b, 16(%rdx)
	movq	112(%rsp), %rax
	addq	$312, %rsp
	retq
Ltmp74:
Lfunc_end12:
	.cfi_endproc

	.p2align	4, 0x90
_runtime.arena_free_last_memory_block:
Lfunc_begin13:
	.loc	2 144 0
	.cfi_startproc
	subq	$88, %rsp
	.cfi_def_cfa_offset 96
	leaq	96(%rsp), %rax
Ltmp75:
	movq	%rsi, 64(%rsp)
Ltmp76:
	movq	%rdi, 56(%rsp)
Ltmp77:
	movq	%rax, 48(%rsp)
Ltmp78:
	movq	56(%rsp), %rax
	movq	%rax, 80(%rsp)
	movq	64(%rsp), %rcx
	movq	%rcx, 40(%rsp)
Ltmp79:
	.loc	2 145 5 prologue_end
	movq	80(%rsp), %rax
	movq	16(%rax), %rax
	movq	%rax, 72(%rsp)
	cmpq	$0, 72(%rsp)
	setne	%cl
	andb	$1, %cl
	cmpb	$0, %cl
	je	LBB13_4
Ltmp80:
	.loc	2 146 20
	movq	80(%rsp), %rax
	movq	72(%rsp), %rcx
	movq	(%rcx), %rcx
	movq	%rcx, 16(%rax)
	.loc	2 148 24
	movq	80(%rsp), %rax
	movq	72(%rsp), %rcx
	movq	40(%rcx), %rcx
	movq	32(%rax), %rdx
	subq	%rcx, %rdx
	movq	%rdx, 32(%rax)
	.loc	2 149 3
	movq	72(%rsp), %rdi
	movq	40(%rsp), %rax
	movq	48(%rsp), %rcx
	movq	32(%rcx), %rdx
	movq	%rsp, %rsi
	movq	%rdx, 32(%rsi)
	movq	24(%rcx), %rdx
	movq	%rdx, 24(%rsi)
	movq	16(%rcx), %rdx
	movq	%rdx, 16(%rsi)
	movq	(%rcx), %rdx
	movq	8(%rcx), %r8
	movq	%r8, 8(%rsi)
	movq	%rdx, (%rsi)
	movq	%rax, %rsi
	callq	_runtime.memory_block_dealloc
Ltmp81:
LBB13_4:
	.loc	2 151 1
	addq	$88, %rsp
	retq
Ltmp82:
Lfunc_end13:
	.cfi_endproc

	.p2align	4, 0x90
_runtime.arena_free_all:
Lfunc_begin14:
	.loc	2 154 0
	.cfi_startproc
	subq	$88, %rsp
	.cfi_def_cfa_offset 96
	leaq	96(%rsp), %rax
Ltmp83:
	movq	%rsi, 72(%rsp)
Ltmp84:
	movq	%rdi, 64(%rsp)
Ltmp85:
	movq	%rax, 56(%rsp)
Ltmp86:
	movq	64(%rsp), %rax
	movq	%rax, 80(%rsp)
	movq	72(%rsp), %rcx
	movq	%rcx, 48(%rsp)
Ltmp87:
LBB14_2:
	.loc	2 155 6 prologue_end
	movq	80(%rsp), %rax
	cmpq	$0, 16(%rax)
	setne	%cl
	andb	$1, %cl
	cmpb	$0, %cl
	je	LBB14_5
Ltmp88:
	movq	80(%rsp), %rax
	movq	16(%rax), %rax
	cmpq	$0, (%rax)
	setne	%cl
	andb	$1, %cl
	cmpb	$0, %cl
	je	LBB14_5
Ltmp89:
	.loc	2 0 6 is_stmt 0
	movq	48(%rsp), %rax
	movq	56(%rsp), %rcx
Ltmp90:
	.loc	2 156 3 is_stmt 1
	movq	32(%rcx), %rdx
	movq	%rsp, %rsi
	movq	%rdx, 32(%rsi)
	movq	24(%rcx), %rdx
	movq	%rdx, 24(%rsi)
	movq	16(%rcx), %rdx
	movq	%rdx, 16(%rsi)
	movq	(%rcx), %rdx
	movq	8(%rcx), %rdi
	movq	%rdi, 8(%rsi)
	movq	%rdx, (%rsi)
	movq	64(%rsp), %rdi
	movq	%rax, %rsi
	callq	_runtime.arena_free_last_memory_block
Ltmp91:
	.loc	2 157 2
	jmp	LBB14_2
Ltmp92:
LBB14_5:
	.loc	2 159 2
	movq	80(%rsp), %rax
	cmpq	$0, 16(%rax)
	setne	%cl
	andb	$1, %cl
	cmpb	$0, %cl
	je	LBB14_7
Ltmp93:
	.loc	2 0 2 is_stmt 0
	xorl	%esi, %esi
Ltmp94:
	.loc	2 160 3 is_stmt 1
	movq	80(%rsp), %rax
	movq	16(%rax), %rax
	movq	24(%rax), %rdi
	movq	80(%rsp), %rax
	movq	16(%rax), %rax
	movq	32(%rax), %rdx
	callq	_memset
	.loc	2 161 25
	movq	80(%rsp), %rax
	movq	16(%rax), %rax
	movq	$0, 32(%rax)
Ltmp95:
LBB14_7:
	.loc	2 163 19
	movq	80(%rsp), %rax
	movq	$0, 24(%rax)
Ltmp96:
	.loc	2 164 1
	addq	$88, %rsp
	retq
Ltmp97:
Lfunc_end14:
	.cfi_endproc

	.p2align	4, 0x90
_runtime.arena_destroy:
Lfunc_begin15:
	.loc	2 166 0
	.cfi_startproc
	subq	$88, %rsp
	.cfi_def_cfa_offset 96
	leaq	96(%rsp), %rax
Ltmp98:
	movq	%rsi, 64(%rsp)
Ltmp99:
	movq	%rdi, 56(%rsp)
Ltmp100:
	movq	%rax, 48(%rsp)
Ltmp101:
	movq	56(%rsp), %rax
	movq	%rax, 80(%rsp)
	movq	64(%rsp), %rcx
	movq	%rcx, 40(%rsp)
Ltmp102:
LBB15_2:
	.loc	2 167 6 prologue_end
	movq	80(%rsp), %rax
	cmpq	$0, 16(%rax)
	setne	%cl
	andb	$1, %cl
	cmpb	$0, %cl
	je	LBB15_4
Ltmp103:
	.loc	2 168 3
	movq	80(%rsp), %rax
	movq	16(%rax), %rax
	movq	%rax, 72(%rsp)
	.loc	2 169 20
	movq	80(%rsp), %rax
	movq	72(%rsp), %rcx
	movq	(%rcx), %rcx
	movq	%rcx, 16(%rax)
	.loc	2 171 24
	movq	80(%rsp), %rax
	movq	72(%rsp), %rcx
	movq	40(%rcx), %rcx
	movq	32(%rax), %rdx
	subq	%rcx, %rdx
	movq	%rdx, 32(%rax)
	.loc	2 172 3
	movq	72(%rsp), %rdi
	movq	40(%rsp), %rax
	movq	48(%rsp), %rcx
	movq	32(%rcx), %rdx
	movq	%rsp, %rsi
	movq	%rdx, 32(%rsi)
	movq	24(%rcx), %rdx
	movq	%rdx, 24(%rsi)
	movq	16(%rcx), %rdx
	movq	%rdx, 16(%rsi)
	movq	(%rcx), %rdx
	movq	8(%rcx), %r8
	movq	%r8, 8(%rsi)
	movq	%rdx, (%rsi)
	movq	%rax, %rsi
	callq	_runtime.memory_block_dealloc
Ltmp104:
	.loc	2 173 2
	jmp	LBB15_2
Ltmp105:
LBB15_4:
	.loc	2 174 19
	movq	80(%rsp), %rax
	movq	$0, 24(%rax)
	.loc	2 175 23
	movq	80(%rsp), %rax
	movq	$0, 32(%rax)
Ltmp106:
	.loc	2 176 1
	addq	$88, %rsp
	retq
Ltmp107:
Lfunc_end15:
	.cfi_endproc

	.p2align	4, 0x90
_runtime.arena_allocator_proc:
Lfunc_begin16:
	.loc	2 182 0
	.cfi_startproc
	pushq	%rbx
	.cfi_def_cfa_offset 16
	subq	$512, %rsp
	.cfi_def_cfa_offset 528
	.cfi_offset %rbx, -16
	movq	%rdi, %rax
	movq	576(%rsp), %r10
	leaq	536(%rsp), %r11
	movq	528(%rsp), %rbx
Ltmp108:
	movq	%r9, 240(%rsp)
Ltmp109:
	movq	%r8, 232(%rsp)
Ltmp110:
	movq	%rcx, 224(%rsp)
Ltmp111:
	movq	%rsi, 216(%rsp)
Ltmp112:
	movq	%rdi, 208(%rsp)
	movb	%dl, 207(%rsp)
Ltmp113:
	movq	%rax, 192(%rsp)
	movq	%r10, 184(%rsp)
Ltmp114:
	movq	%r11, 176(%rsp)
	movq	%rbx, 168(%rsp)
Ltmp115:
	movq	216(%rsp), %rax
	movq	%rax, 504(%rsp)
	movb	207(%rsp), %cl
	movb	%cl, 503(%rsp)
	movq	224(%rsp), %rdx
	movq	%rdx, 488(%rsp)
	movq	232(%rsp), %rsi
	movq	%rsi, 480(%rsp)
	movq	240(%rsp), %rdi
	movq	%rdi, 472(%rsp)
	movq	168(%rsp), %r8
	movq	%r8, 464(%rsp)
	xorps	%xmm0, %xmm0
	movaps	%xmm0, 448(%rsp)
	movb	$0, 447(%rsp)
	movq	184(%rsp), %r9
Ltmp116:
	.loc	2 186 2 prologue_end
	movq	%rax, 432(%rsp)
	.loc	2 188 2
	movq	%rdx, 424(%rsp)
	movq	%rsi, 416(%rsp)
	.loc	2 189 2
	movq	%r8, 408(%rsp)
	.loc	2 191 2
	movzbl	%cl, %r10d
	movl	%r10d, %r11d
	subb	$6, %cl
	movq	%r9, 160(%rsp)
	movq	%r11, 152(%rsp)
	ja	LBB16_25
Ltmp117:
	.loc	2 0 2 is_stmt 0
	leaq	LJTI16_0(%rip), %rax
	movq	152(%rsp), %rcx
	movslq	(%rax,%rcx,4), %rdx
	addq	%rax, %rdx
	jmpq	*%rdx
Ltmp118:
LBB16_2:
	.loc	2 193 3 is_stmt 1
	movq	432(%rsp), %rsi
	movq	424(%rsp), %rdx
	movq	416(%rsp), %rcx
	xorps	%xmm0, %xmm0
	movaps	%xmm0, 384(%rsp)
	movq	$0, 400(%rsp)
	movq	176(%rsp), %rax
	movq	32(%rax), %rdi
	movq	%rsp, %r8
	movq	%rdi, 32(%r8)
	movq	24(%rax), %rdi
	movq	%rdi, 24(%r8)
	movq	16(%rax), %rdi
	movq	%rdi, 16(%r8)
	movq	(%rax), %rdi
	movq	8(%rax), %r9
	movq	%r9, 8(%r8)
	movq	%rdi, (%r8)
	leaq	384(%rsp), %rdi
	movq	160(%rsp), %r8
	callq	_runtime.arena_alloc
	movb	400(%rsp), %r10b
	movq	384(%rsp), %rax
	movq	392(%rsp), %rcx
	movq	%rcx, 456(%rsp)
	movq	%rax, 448(%rsp)
	movb	%r10b, 447(%rsp)
	movq	208(%rsp), %rdx
	movq	%rcx, 8(%rdx)
	movq	%rax, (%rdx)
	movb	%r10b, 16(%rdx)
	movq	192(%rsp), %rax
	addq	$512, %rsp
	popq	%rbx
	retq
Ltmp119:
LBB16_3:
	.loc	2 195 7
	movb	$4, 447(%rsp)
	jmp	LBB16_25
Ltmp120:
LBB16_4:
	.loc	2 197 3
	movq	432(%rsp), %rdi
	movq	160(%rsp), %rax
	movq	176(%rsp), %rcx
	movq	32(%rcx), %rdx
	movq	%rsp, %rsi
	movq	%rdx, 32(%rsi)
	movq	24(%rcx), %rdx
	movq	%rdx, 24(%rsi)
	movq	16(%rcx), %rdx
	movq	%rdx, 16(%rsi)
	movq	(%rcx), %rdx
	movq	8(%rcx), %r8
	movq	%r8, 8(%rsi)
	movq	%rdx, (%rsi)
	movq	%rax, %rsi
	callq	_runtime.arena_free_all
	jmp	LBB16_25
Ltmp121:
LBB16_5:
	.loc	2 0 3 is_stmt 0
	movq	240(%rsp), %rax
	.loc	2 199 3 is_stmt 1
	movq	%rax, 376(%rsp)
	.loc	2 201 3
	cmpq	$0, 376(%rsp)
	sete	%cl
	andb	$1, %cl
	movb	$1, %dl
	cmpb	%cl, %dl
	je	LBB16_7
Ltmp122:
	.loc	2 203 4
	movq	424(%rsp), %rax
	cmpq	408(%rsp), %rax
	sete	%cl
	andb	$1, %cl
	movb	$1, %dl
	cmpb	%cl, %dl
	je	LBB16_9
	jmp	LBB16_8
Ltmp123:
LBB16_7:
	movq	432(%rsp), %rsi
	movq	424(%rsp), %rdx
	movq	416(%rsp), %rcx
	xorps	%xmm0, %xmm0
	movaps	%xmm0, 352(%rsp)
	movq	$0, 368(%rsp)
	movq	176(%rsp), %rax
	movq	32(%rax), %rdi
	movq	%rsp, %r8
	movq	%rdi, 32(%r8)
	movq	24(%rax), %rdi
	movq	%rdi, 24(%r8)
	movq	16(%rax), %rdi
	movq	%rdi, 16(%r8)
	movq	(%rax), %rdi
	movq	8(%rax), %r9
	movq	%r9, 8(%r8)
	movq	%rdi, (%r8)
	leaq	352(%rsp), %rdi
	movq	160(%rsp), %r8
	callq	_runtime.arena_alloc
	movb	368(%rsp), %r10b
	movq	352(%rsp), %rax
	movq	360(%rsp), %rcx
	movq	%rcx, 456(%rsp)
	movq	%rax, 448(%rsp)
	movb	%r10b, 447(%rsp)
	movq	208(%rsp), %rdx
	movq	%rcx, 8(%rdx)
	movq	%rax, (%rdx)
	movb	%r10b, 16(%rdx)
	movq	192(%rsp), %rax
	addq	$512, %rsp
	popq	%rbx
	retq
Ltmp124:
LBB16_8:
	.loc	2 207 4
	cmpq	$0, 424(%rsp)
	sete	%al
	andb	$1, %al
	movb	$1, %cl
	cmpb	%al, %cl
	je	LBB16_11
	jmp	LBB16_10
Ltmp125:
LBB16_9:
	.loc	2 206 9
	movq	424(%rsp), %rax
	movq	376(%rsp), %rcx
	leaq	L_csbs$84(%rip), %rdi
	xorl	%edx, %edx
	movl	%edx, %r8d
	movl	$69, %esi
	movl	$206, %edx
	movl	$19, %r9d
	movq	%rcx, 144(%rsp)
	movl	%r9d, %ecx
	movq	%rax, %r9
	movq	%rax, 136(%rsp)
	callq	_runtime.multi_pointer_slice_expr_error
	movq	144(%rsp), %rax
	movq	%rax, 336(%rsp)
	movq	136(%rsp), %rax
	movq	%rax, 344(%rsp)
	movq	336(%rsp), %rsi
	movq	344(%rsp), %rdi
	movq	%rdi, 456(%rsp)
	movq	%rsi, 448(%rsp)
	.loc	2 207 4
	movq	448(%rsp), %rsi
	movq	456(%rsp), %rdi
	movb	447(%rsp), %r10b
	movq	%rdi, 456(%rsp)
	movq	%rsi, 448(%rsp)
	movb	%r10b, 447(%rsp)
	movq	208(%rsp), %r8
	movq	%rdi, 8(%r8)
	movq	%rsi, (%r8)
	movb	%r10b, 16(%r8)
	movq	192(%rsp), %rax
	addq	$512, %rsp
	popq	%rbx
	retq
Ltmp126:
LBB16_10:
	.loc	2 0 4 is_stmt 0
	xorl	%eax, %eax
	.loc	2 210 4 is_stmt 1
	movq	376(%rsp), %rcx
	movq	416(%rsp), %rdx
	subq	$1, %rdx
	andq	%rdx, %rcx
	cmpq	$0, %rcx
	sete	%sil
	andb	$1, %sil
	cmpb	$0, %sil
	movb	%al, 135(%rsp)
	jne	LBB16_12
	jmp	LBB16_13
Ltmp127:
LBB16_11:
	.loc	2 209 8
	movb	$4, 447(%rsp)
	.loc	2 210 4
	movq	448(%rsp), %rax
	movq	456(%rsp), %rcx
	movb	447(%rsp), %dl
	movq	%rcx, 456(%rsp)
	movq	%rax, 448(%rsp)
	movb	%dl, 447(%rsp)
	movq	208(%rsp), %rsi
	movq	%rcx, 8(%rsi)
	movq	%rax, (%rsi)
	movb	%dl, 16(%rsi)
	movq	192(%rsp), %rax
	addq	$512, %rsp
	popq	%rbx
	retq
Ltmp128:
LBB16_12:
	movq	424(%rsp), %rax
	cmpq	408(%rsp), %rax
	setb	%cl
	andb	$1, %cl
	cmpb	$0, %cl
	setne	%cl
	movb	%cl, 135(%rsp)
Ltmp129:
LBB16_13:
	.loc	2 0 4 is_stmt 0
	movb	135(%rsp), %al
	.loc	2 210 4
	andb	$1, %al
	movb	$1, %cl
	cmpb	%al, %cl
	je	LBB16_15
Ltmp130:
	.loc	2 214 4 is_stmt 1
	jmp	LBB16_16
Ltmp131:
LBB16_15:
	.loc	2 213 9
	movq	424(%rsp), %rax
	movq	376(%rsp), %rcx
	leaq	L_csbs$84(%rip), %rdi
	xorl	%edx, %edx
	movl	%edx, %r8d
	movl	$69, %esi
	movl	$213, %edx
	movl	$19, %r9d
	movq	%rcx, 120(%rsp)
	movl	%r9d, %ecx
	movq	%rax, %r9
	movq	%rax, 112(%rsp)
	callq	_runtime.multi_pointer_slice_expr_error
	movq	120(%rsp), %rax
	movq	%rax, 320(%rsp)
	movq	112(%rsp), %rax
	movq	%rax, 328(%rsp)
	movq	320(%rsp), %rsi
	movq	328(%rsp), %rdi
	movq	%rdi, 456(%rsp)
	movq	%rsi, 448(%rsp)
	.loc	2 214 4
	movq	448(%rsp), %rsi
	movq	456(%rsp), %rdi
	movb	447(%rsp), %r10b
	movq	%rdi, 456(%rsp)
	movq	%rsi, 448(%rsp)
	movb	%r10b, 447(%rsp)
	movq	208(%rsp), %r8
	movq	%rdi, 8(%r8)
	movq	%rsi, (%r8)
	movb	%r10b, 16(%r8)
	movq	192(%rsp), %rax
	addq	$512, %rsp
	popq	%rbx
	retq
Ltmp132:
LBB16_16:
	.loc	2 217 3
	movq	432(%rsp), %rsi
	movq	424(%rsp), %rdx
	movq	416(%rsp), %rcx
	xorps	%xmm0, %xmm0
	movaps	%xmm0, 288(%rsp)
	movq	$0, 304(%rsp)
	movq	176(%rsp), %rax
	movq	32(%rax), %rdi
	movq	%rsp, %r8
	movq	%rdi, 32(%r8)
	movq	24(%rax), %rdi
	movq	%rdi, 24(%r8)
	movq	16(%rax), %rdi
	movq	%rdi, 16(%r8)
	movq	(%rax), %rdi
	movq	8(%rax), %r9
	movq	%r9, 8(%r8)
	movq	%rdi, (%r8)
	leaq	288(%rsp), %rdi
	movq	160(%rsp), %r8
	callq	_runtime.arena_alloc
	movq	288(%rsp), %rax
	movq	296(%rsp), %rcx
	movb	304(%rsp), %r10b
	cmpb	$0, %r10b
	movq	%rax, 104(%rsp)
	movq	%rcx, 96(%rsp)
	movb	%r10b, 95(%rsp)
	je	LBB16_18
Ltmp133:
	.loc	2 0 3 is_stmt 0
	movb	95(%rsp), %al
	.loc	2 217 3
	movb	%al, 447(%rsp)
	movq	448(%rsp), %rcx
	movq	456(%rsp), %rdx
	movb	447(%rsp), %sil
	movq	%rdx, 456(%rsp)
	movq	%rcx, 448(%rsp)
	movb	%sil, 447(%rsp)
	movq	208(%rsp), %rdi
	movq	%rdx, 8(%rdi)
	movq	%rcx, (%rdi)
	movb	%sil, 16(%rdi)
	movq	192(%rsp), %rax
	addq	$512, %rsp
	popq	%rbx
	retq
Ltmp134:
LBB16_18:
	.loc	2 0 3
	movq	104(%rsp), %rax
	.loc	2 217 3
	movq	%rax, 272(%rsp)
	movq	96(%rsp), %rcx
	movq	%rcx, 280(%rsp)
	.loc	2 218 3 is_stmt 1
	cmpq	$0, 272(%rsp)
	sete	%dl
	andb	$1, %dl
	cmpb	$0, %dl
	je	LBB16_20
Ltmp135:
	.loc	2 219 4
	movq	448(%rsp), %rax
	movq	456(%rsp), %rcx
	movb	447(%rsp), %dl
	movq	%rcx, 456(%rsp)
	movq	%rax, 448(%rsp)
	movb	%dl, 447(%rsp)
	movq	208(%rsp), %rsi
	movq	%rcx, 8(%rsi)
	movq	%rax, (%rsi)
	movb	%dl, 16(%rsi)
	movq	192(%rsp), %rax
	addq	$512, %rsp
	popq	%rbx
	retq
Ltmp136:
LBB16_20:
	.loc	2 221 3
	movq	272(%rsp), %rdi
	movq	280(%rsp), %rsi
	movq	408(%rsp), %rax
	movq	376(%rsp), %rcx
	leaq	L_csbs$84(%rip), %rdx
	xorl	%r8d, %r8d
	movl	$69, %r9d
	movl	$221, %r10d
	movl	$28, %r11d
	movq	%rdi, 80(%rsp)
	movq	%rdx, %rdi
	movq	%rsi, 72(%rsp)
	movq	%r9, %rsi
	movl	%r10d, %edx
	movq	%rcx, 64(%rsp)
	movl	%r11d, %ecx
	movq	%rax, %r9
	movq	%rax, 56(%rsp)
	callq	_runtime.multi_pointer_slice_expr_error
	movq	64(%rsp), %rax
	movq	%rax, 256(%rsp)
	movq	56(%rsp), %rax
	movq	%rax, 264(%rsp)
	movq	256(%rsp), %rdx
	movq	264(%rsp), %rcx
	movq	80(%rsp), %rdi
	movq	72(%rsp), %rsi
	callq	"_runtime.copy_slice-10695"
	.loc	2 222 3
	movq	272(%rsp), %rcx
	movq	280(%rsp), %rdx
	movq	%rdx, 456(%rsp)
	movq	%rcx, 448(%rsp)
	movb	$0, 447(%rsp)
	movq	208(%rsp), %rsi
	movq	%rdx, 8(%rsi)
	movq	%rcx, (%rsi)
	movb	$0, 16(%rsi)
	movq	192(%rsp), %rcx
	movq	%rax, 48(%rsp)
	movq	%rcx, %rax
	addq	$512, %rsp
	popq	%rbx
	retq
Ltmp137:
LBB16_21:
	.loc	2 0 3 is_stmt 0
	movq	240(%rsp), %rax
	.loc	2 224 3 is_stmt 1
	movq	%rax, 248(%rsp)
	.loc	2 225 3
	cmpq	$0, 248(%rsp)
	setne	%cl
	andb	$1, %cl
	cmpb	$0, %cl
	je	LBB16_23
Ltmp138:
	.loc	2 226 9
	movq	248(%rsp), %rax
	movb	$93, (%rax)
Ltmp139:
LBB16_23:
	jmp	LBB16_25
Ltmp140:
LBB16_24:
	.loc	2 229 7
	movb	$4, 447(%rsp)
Ltmp141:
LBB16_25:
	.loc	2 232 2
	movq	448(%rsp), %rax
	movq	456(%rsp), %rcx
	movb	447(%rsp), %dl
	movq	%rcx, 456(%rsp)
	movq	%rax, 448(%rsp)
	movb	%dl, 447(%rsp)
	movq	208(%rsp), %rsi
	movq	%rcx, 8(%rsi)
	movq	%rax, (%rsi)
	movb	%dl, 16(%rsi)
	movq	192(%rsp), %rax
	addq	$512, %rsp
	popq	%rbx
	retq
Ltmp142:
Lfunc_end16:
	.cfi_endproc
	.p2align	2, 0x90
	.data_region jt32
.set L16_0_set_2, LBB16_2-LJTI16_0
.set L16_0_set_3, LBB16_3-LJTI16_0
.set L16_0_set_4, LBB16_4-LJTI16_0
.set L16_0_set_5, LBB16_5-LJTI16_0
.set L16_0_set_21, LBB16_21-LJTI16_0
.set L16_0_set_24, LBB16_24-LJTI16_0
LJTI16_0:
	.long	L16_0_set_2
	.long	L16_0_set_3
	.long	L16_0_set_4
	.long	L16_0_set_5
	.long	L16_0_set_21
	.long	L16_0_set_24
	.long	L16_0_set_2
	.end_data_region

	.p2align	4, 0x90
_runtime.bounds_trap:
Lfunc_begin17:
	.file	13 "/Users/tarvydas/tools/Odin/core/runtime/error_checks.odin"
	.loc	13 3 0
	.cfi_startproc
	.loc	13 3 43 prologue_end
	jmp	LBB17_1
LBB17_1:
Ltmp143:
	.loc	13 7 3
	ud2
Ltmp144:
Lfunc_end17:
	.cfi_endproc

	.p2align	4, 0x90
_runtime.os_write:
Lfunc_begin18:
	.file	14 "/Users/tarvydas/tools/Odin/core/runtime/os_specific.odin"
	.loc	14 5 0
	.cfi_startproc
	subq	$56, %rsp
	.cfi_def_cfa_offset 64
	movq	%rsi, 16(%rsp)
	movq	%rdi, 8(%rsp)
Ltmp145:
	movq	8(%rsp), %rax
	movq	%rax, 40(%rsp)
	movq	16(%rsp), %rcx
	movq	%rcx, 48(%rsp)
Ltmp146:
	.loc	14 6 2 prologue_end
	movq	%rax, %rdi
	movq	%rcx, %rsi
	callq	_runtime._os_write
	movq	%rax, 24(%rsp)
	movq	%rdx, 32(%rsp)
	movq	24(%rsp), %rax
	movq	32(%rsp), %rdx
	addq	$56, %rsp
	retq
Ltmp147:
Lfunc_end18:
	.cfi_endproc

	.p2align	4, 0x90
_runtime.slice_handle_error:
Lfunc_begin19:
	.loc	13 37 0
	.cfi_startproc
	pushq	%rbx
	.cfi_def_cfa_offset 16
	subq	$224, %rsp
	.cfi_def_cfa_offset 240
	.cfi_offset %rbx, -16
	movq	240(%rsp), %rax
Ltmp148:
	movq	%r9, 120(%rsp)
Ltmp149:
	movq	%r8, 112(%rsp)
Ltmp150:
	movl	%ecx, 108(%rsp)
Ltmp151:
	movl	%edx, 104(%rsp)
Ltmp152:
	movq	%rsi, 96(%rsp)
	movq	%rdi, 88(%rsp)
Ltmp153:
	movq	%rax, 80(%rsp)
Ltmp154:
	movq	88(%rsp), %rax
	movq	%rax, 208(%rsp)
	movq	96(%rsp), %rcx
	movq	%rcx, 216(%rsp)
	movl	104(%rsp), %edx
	movl	%edx, 204(%rsp)
	movl	108(%rsp), %esi
	movl	%esi, 200(%rsp)
	movq	112(%rsp), %rdi
	movq	%rdi, 192(%rsp)
	movq	120(%rsp), %r8
	movq	%r8, 184(%rsp)
	movq	80(%rsp), %r9
	movq	%r9, 176(%rsp)
Ltmp155:
	.loc	13 38 2 prologue_end
	xorps	%xmm0, %xmm0
	movaps	%xmm0, 144(%rsp)
	movaps	%xmm0, 128(%rsp)
	movq	$0, 160(%rsp)
	movaps	%xmm0, 144(%rsp)
	movaps	%xmm0, 128(%rsp)
	movq	$0, 160(%rsp)
	movq	%rcx, 136(%rsp)
	movq	%rax, 128(%rsp)
	movl	%edx, 144(%rsp)
	movl	%esi, 148(%rsp)
	movq	160(%rsp), %r10
	movq	%rsp, %r11
	movq	%r10, 32(%r11)
	movq	152(%rsp), %r10
	movq	%r10, 24(%r11)
	movq	144(%rsp), %r10
	movq	%r10, 16(%r11)
	movq	128(%rsp), %r10
	movq	136(%rsp), %rbx
	movq	%rbx, 8(%r11)
	movq	%r10, (%r11)
	callq	_runtime.print_caller_location
	.loc	13 39 2
	leaq	L_csbs$87(%rip), %rdi
	movl	$23, %esi
	callq	_runtime.print_string
	movq	112(%rsp), %rdi
	movq	%rax, 72(%rsp)
	.loc	13 40 2
	callq	_runtime.print_i64
	.loc	13 41 2
	leaq	L_csbs$88(%rip), %rdi
	movl	$1, %esi
	callq	_runtime.print_string
	movq	120(%rsp), %rdi
	movq	%rax, 64(%rsp)
	.loc	13 42 2
	callq	_runtime.print_i64
	.loc	13 43 2
	leaq	L_csbs$89(%rip), %rdi
	movl	$21, %esi
	callq	_runtime.print_string
	movq	80(%rsp), %rdi
	movq	%rax, 56(%rsp)
	.loc	13 44 2
	callq	_runtime.print_i64
	movl	$10, %edi
	.loc	13 45 2
	callq	_runtime.print_byte
	movq	%rax, 48(%rsp)
	.loc	13 46 2
	callq	_runtime.bounds_trap
Ltmp156:
Lfunc_end19:
	.cfi_endproc

	.p2align	4, 0x90
_runtime.multi_pointer_slice_handle_error:
Lfunc_begin20:
	.loc	13 49 0
	.cfi_startproc
	subq	$200, %rsp
	.cfi_def_cfa_offset 208
	movq	%r9, 104(%rsp)
Ltmp157:
	movq	%r8, 96(%rsp)
Ltmp158:
	movl	%ecx, 92(%rsp)
Ltmp159:
	movl	%edx, 88(%rsp)
Ltmp160:
	movq	%rsi, 80(%rsp)
	movq	%rdi, 72(%rsp)
Ltmp161:
	movq	72(%rsp), %rax
	movq	%rax, 184(%rsp)
	movq	80(%rsp), %rcx
	movq	%rcx, 192(%rsp)
	movl	88(%rsp), %edx
	movl	%edx, 180(%rsp)
	movl	92(%rsp), %esi
	movl	%esi, 176(%rsp)
	movq	96(%rsp), %rdi
	movq	%rdi, 168(%rsp)
	movq	104(%rsp), %r8
	movq	%r8, 160(%rsp)
Ltmp162:
	.loc	13 50 2 prologue_end
	xorps	%xmm0, %xmm0
	movaps	%xmm0, 128(%rsp)
	movaps	%xmm0, 112(%rsp)
	movq	$0, 144(%rsp)
	movaps	%xmm0, 128(%rsp)
	movaps	%xmm0, 112(%rsp)
	movq	$0, 144(%rsp)
	movq	%rcx, 120(%rsp)
	movq	%rax, 112(%rsp)
	movl	%edx, 128(%rsp)
	movl	%esi, 132(%rsp)
	movq	144(%rsp), %r9
	movq	%rsp, %r10
	movq	%r9, 32(%r10)
	movq	136(%rsp), %r9
	movq	%r9, 24(%r10)
	movq	128(%rsp), %r9
	movq	%r9, 16(%r10)
	movq	112(%rsp), %r9
	movq	120(%rsp), %r11
	movq	%r11, 8(%r10)
	movq	%r9, (%r10)
	callq	_runtime.print_caller_location
	.loc	13 51 2
	leaq	L_csbs$87(%rip), %rdi
	movl	$23, %esi
	callq	_runtime.print_string
	movq	96(%rsp), %rdi
	movq	%rax, 64(%rsp)
	.loc	13 52 2
	callq	_runtime.print_i64
	.loc	13 53 2
	leaq	L_csbs$88(%rip), %rdi
	movl	$1, %esi
	callq	_runtime.print_string
	movq	104(%rsp), %rdi
	movq	%rax, 56(%rsp)
	.loc	13 54 2
	callq	_runtime.print_i64
	movl	$10, %edi
	.loc	13 55 2
	callq	_runtime.print_byte
	movq	%rax, 48(%rsp)
	.loc	13 56 2
	callq	_runtime.bounds_trap
Ltmp163:
Lfunc_end20:
	.cfi_endproc

	.p2align	4, 0x90
_runtime.multi_pointer_slice_expr_error:
Lfunc_begin21:
	.loc	13 60 0
	.cfi_startproc
	subq	$88, %rsp
	.cfi_def_cfa_offset 96
	movq	%r9, 40(%rsp)
Ltmp164:
	movq	%r8, 32(%rsp)
Ltmp165:
	movl	%ecx, 28(%rsp)
Ltmp166:
	movl	%edx, 24(%rsp)
Ltmp167:
	movq	%rsi, 16(%rsp)
	movq	%rdi, 8(%rsp)
Ltmp168:
	movq	8(%rsp), %rax
	movq	%rax, 72(%rsp)
	movq	16(%rsp), %rcx
	movq	%rcx, 80(%rsp)
	movl	24(%rsp), %edx
	movl	%edx, 68(%rsp)
	movl	28(%rsp), %esi
	movl	%esi, 64(%rsp)
	movq	32(%rsp), %rdi
	movq	%rdi, 56(%rsp)
	movq	40(%rsp), %r8
	movq	%r8, 48(%rsp)
Ltmp169:
	.loc	13 61 2 prologue_end
	cmpq	%r8, %rdi
	setle	%r9b
	andb	$1, %r9b
	cmpb	$0, %r9b
	je	LBB21_3
Ltmp170:
	.loc	13 62 3
	addq	$88, %rsp
	retq
Ltmp171:
LBB21_3:
	.loc	13 0 3 is_stmt 0
	movq	8(%rsp), %rdi
	movq	16(%rsp), %rsi
	movl	24(%rsp), %edx
	movl	28(%rsp), %ecx
	movq	32(%rsp), %r8
	movq	40(%rsp), %r9
	.loc	13 64 2 is_stmt 1
	callq	_runtime.multi_pointer_slice_handle_error
Ltmp172:
Lfunc_end21:
	.cfi_endproc

	.p2align	4, 0x90
_runtime._os_write:
Lfunc_begin22:
	.file	15 "/Users/tarvydas/tools/Odin/core/runtime/os_specific_any.odin"
	.loc	15 8 0
	.cfi_startproc
	subq	$296, %rsp
	.cfi_def_cfa_offset 304
	movq	%rsi, 40(%rsp)
	movq	%rdi, 32(%rsp)
Ltmp173:
	movq	32(%rsp), %rax
	movq	%rax, 280(%rsp)
	movq	40(%rsp), %rcx
	movq	%rcx, 288(%rsp)
Ltmp174:
	.loc	15 9 10 prologue_end
	xorps	%xmm0, %xmm0
	movaps	%xmm0, 256(%rsp)
	movaps	%xmm0, 240(%rsp)
	movaps	%xmm0, 224(%rsp)
	movaps	%xmm0, 208(%rsp)
	movaps	%xmm0, 192(%rsp)
	movaps	%xmm0, 176(%rsp)
	leaq	176(%rsp), %rdx
	movq	%rdx, %rdi
	movaps	%xmm0, 16(%rsp)
	movq	%rdx, 8(%rsp)
	callq	"_runtime.__init_context-822"
	movaps	16(%rsp), %xmm0
	movaps	%xmm0, 160(%rsp)
	movaps	%xmm0, 144(%rsp)
	movaps	%xmm0, 128(%rsp)
	movaps	%xmm0, 112(%rsp)
	movaps	%xmm0, 96(%rsp)
	movaps	%xmm0, 80(%rsp)
	leaq	80(%rsp), %rdi
	callq	_runtime.default_context
	movaps	80(%rsp), %xmm0
	movaps	96(%rsp), %xmm1
	movaps	112(%rsp), %xmm2
	movaps	128(%rsp), %xmm3
	movaps	144(%rsp), %xmm4
	movaps	160(%rsp), %xmm5
	movaps	%xmm5, 256(%rsp)
	movaps	%xmm4, 240(%rsp)
	movaps	%xmm3, 224(%rsp)
	movaps	%xmm2, 208(%rsp)
	movaps	%xmm1, 192(%rsp)
	movaps	%xmm0, 176(%rsp)
	.loc	15 10 2
	movl	_os.stderr(%rip), %edi
	movq	32(%rsp), %rsi
	movq	40(%rsp), %rdx
	movq	8(%rsp), %rcx
	callq	_os.write
	movq	%rax, 72(%rsp)
	movq	%rdx, 64(%rsp)
	.loc	15 11 2
	movq	72(%rsp), %rax
	movq	64(%rsp), %rcx
	movq	%rax, 48(%rsp)
	movq	%rcx, 56(%rsp)
	movq	48(%rsp), %rax
	movq	56(%rsp), %rdx
	addq	$296, %rsp
	retq
Ltmp175:
Lfunc_end22:
	.cfi_endproc

	.p2align	4, 0x90
_runtime.slice_expr_error_hi:
Lfunc_begin23:
	.loc	13 67 0
	.cfi_startproc
	subq	$88, %rsp
	.cfi_def_cfa_offset 96
	movq	%r9, 40(%rsp)
Ltmp176:
	movq	%r8, 32(%rsp)
Ltmp177:
	movl	%ecx, 28(%rsp)
Ltmp178:
	movl	%edx, 24(%rsp)
Ltmp179:
	movq	%rsi, 16(%rsp)
	movq	%rdi, 8(%rsp)
Ltmp180:
	xorl	%eax, %eax
	movl	%eax, %ecx
	movq	8(%rsp), %rdx
	movq	%rdx, 72(%rsp)
	movq	16(%rsp), %rsi
	movq	%rsi, 80(%rsp)
	movl	24(%rsp), %eax
	movl	%eax, 68(%rsp)
	movl	28(%rsp), %edi
	movl	%edi, 64(%rsp)
	movq	32(%rsp), %r8
	movq	%r8, 56(%rsp)
	movq	40(%rsp), %r9
	movq	%r9, 48(%rsp)
Ltmp181:
	.loc	13 68 2 prologue_end
	cmpq	%r8, %rcx
	setle	%r10b
	andb	$1, %r10b
	cmpb	$0, %r10b
	je	LBB23_4
Ltmp182:
	.loc	13 0 2 is_stmt 0
	movq	32(%rsp), %rax
	movq	40(%rsp), %rcx
	.loc	13 68 2
	cmpq	%rcx, %rax
	setle	%dl
	andb	$1, %dl
	cmpb	$0, %dl
	je	LBB23_4
Ltmp183:
	.loc	13 69 3 is_stmt 1
	addq	$88, %rsp
	retq
Ltmp184:
LBB23_4:
	.loc	13 71 2
	movq	%rsp, %rax
	movq	40(%rsp), %rcx
	movq	%rcx, (%rax)
	xorl	%edx, %edx
	movl	%edx, %r8d
	movq	8(%rsp), %rdi
	movq	16(%rsp), %rsi
	movl	24(%rsp), %edx
	movl	28(%rsp), %r9d
	movl	%r9d, %ecx
	movq	32(%rsp), %rax
	movq	%rax, %r9
	callq	_runtime.slice_handle_error
Ltmp185:
Lfunc_end23:
	.cfi_endproc

	.p2align	4, 0x90
_runtime.udivmod128:
Lfunc_begin24:
	.file	16 "/Users/tarvydas/tools/Odin/core/runtime/udivmod128.odin"
	.loc	16 5 0
	.cfi_startproc
	subq	$328, %rsp
	.cfi_def_cfa_offset 336
	movq	%r8, 112(%rsp)
Ltmp186:
	movq	%rcx, 104(%rsp)
	movq	%rdx, 96(%rsp)
Ltmp187:
	movq	%rsi, 88(%rsp)
	movq	%rdi, 80(%rsp)
Ltmp188:
	xorl	%eax, %eax
	movq	80(%rsp), %rcx
	movq	%rcx, 312(%rsp)
	movq	88(%rsp), %rdx
	movq	%rdx, 320(%rsp)
	movq	104(%rsp), %rsi
	movq	%rsi, 304(%rsp)
	movq	96(%rsp), %rdi
	movq	%rdi, 296(%rsp)
	movq	112(%rsp), %r8
	movq	%r8, 288(%rsp)
Ltmp189:
	.loc	16 9 2 prologue_end
	movq	%rdx, 280(%rsp)
	movq	%rcx, 272(%rsp)
	movq	272(%rsp), %r9
	movq	280(%rsp), %r10
	movq	%r10, 264(%rsp)
	movq	%r9, 256(%rsp)
	.loc	16 10 2
	movq	%rsi, 248(%rsp)
	movq	%rdi, 240(%rsp)
	movq	240(%rsp), %r9
	movq	248(%rsp), %r10
	movq	%r10, 232(%rsp)
	movq	%r9, 224(%rsp)
	.loc	16 11 2
	leaq	208(%rsp), %r9
Ltmp190:
	movq	%r9, %rdi
	movl	%eax, %esi
	movl	$16, %r9d
Ltmp191:
	movq	%r9, %rdx
	movl	%eax, 76(%rsp)
	movq	%r9, 64(%rsp)
	callq	_memset
	leaq	192(%rsp), %rcx
Ltmp192:
	movq	%rcx, %rdi
	movl	76(%rsp), %esi
	movq	64(%rsp), %rdx
	callq	_memset
Ltmp193:
	.loc	16 12 2
	movl	$0, 188(%rsp)
	.loc	16 21 2
	cmpq	$0, 264(%rsp)
	sete	%r11b
	andb	$1, %r11b
	cmpb	$0, %r11b
	je	LBB24_9
Ltmp194:
	.loc	16 22 3
	cmpq	$0, 232(%rsp)
	sete	%al
	andb	$1, %al
	cmpb	$0, %al
	je	LBB24_6
Ltmp195:
	.loc	16 0 3 is_stmt 0
	movq	112(%rsp), %rax
Ltmp196:
	.loc	16 23 4 is_stmt 1
	cmpq	$0, %rax
	setne	%cl
	andb	$1, %cl
	cmpb	$0, %cl
	je	LBB24_5
Ltmp197:
	.loc	16 24 5
	movq	256(%rsp), %rax
	movq	224(%rsp), %rcx
	xorl	%edx, %edx
	divq	%rcx
	movq	%rdx, 176(%rsp)
	.loc	16 25 10
	movq	176(%rsp), %rax
	movq	112(%rsp), %rcx
	movq	%rax, (%rcx)
	movq	$0, 8(%rcx)
Ltmp198:
LBB24_5:
	.loc	16 27 4
	movq	256(%rsp), %rax
	movq	224(%rsp), %rcx
	xorl	%edx, %edx
	movl	%edx, %esi
	movq	%rsi, %rdx
	divq	%rcx
	movq	%rsi, %rdx
	addq	$328, %rsp
	retq
Ltmp199:
LBB24_6:
	.loc	16 0 4 is_stmt 0
	movq	112(%rsp), %rax
	.loc	16 30 3 is_stmt 1
	cmpq	$0, %rax
	setne	%cl
	andb	$1, %cl
	cmpb	$0, %cl
	je	LBB24_8
Ltmp200:
	.loc	16 31 9
	movq	256(%rsp), %rax
	movq	112(%rsp), %rcx
	movq	%rax, (%rcx)
	movq	$0, 8(%rcx)
Ltmp201:
LBB24_8:
	.loc	16 0 9 is_stmt 0
	xorl	%eax, %eax
	movl	%eax, %ecx
	.loc	16 33 3 is_stmt 1
	movq	%rcx, %rax
	movq	%rcx, %rdx
	addq	$328, %rsp
	retq
Ltmp202:
LBB24_9:
	.loc	16 36 2
	cmpq	$0, 224(%rsp)
	sete	%al
	andb	$1, %al
	cmpb	$0, %al
	je	LBB24_27
Ltmp203:
	.loc	16 37 3
	cmpq	$0, 232(%rsp)
	sete	%al
	andb	$1, %al
	cmpb	$0, %al
	je	LBB24_14
Ltmp204:
	.loc	16 0 3 is_stmt 0
	movq	112(%rsp), %rax
Ltmp205:
	.loc	16 38 4 is_stmt 1
	cmpq	$0, %rax
	setne	%cl
	andb	$1, %cl
	cmpb	$0, %cl
	je	LBB24_13
Ltmp206:
	.loc	16 39 10
	movq	264(%rsp), %rax
	movq	224(%rsp), %rcx
	xorl	%edx, %edx
	divq	%rcx
	movq	112(%rsp), %rax
	movq	%rdx, (%rax)
	movq	$0, 8(%rax)
Ltmp207:
LBB24_13:
	.loc	16 41 4
	movq	264(%rsp), %rax
	movq	224(%rsp), %rcx
	xorl	%edx, %edx
	movl	%edx, %esi
	movq	%rsi, %rdx
	divq	%rcx
	movq	%rsi, %rdx
	addq	$328, %rsp
	retq
Ltmp208:
LBB24_14:
	.loc	16 43 3
	cmpq	$0, 256(%rsp)
	sete	%al
	andb	$1, %al
	cmpb	$0, %al
	je	LBB24_18
Ltmp209:
	.loc	16 0 3 is_stmt 0
	movq	112(%rsp), %rax
Ltmp210:
	.loc	16 44 4 is_stmt 1
	cmpq	$0, %rax
	setne	%cl
	andb	$1, %cl
	cmpb	$0, %cl
	je	LBB24_17
Ltmp211:
	.loc	16 45 13
	movq	264(%rsp), %rax
	movq	232(%rsp), %rcx
	xorl	%edx, %edx
	divq	%rcx
	movq	%rdx, 200(%rsp)
	.loc	16 46 12
	movq	$0, 192(%rsp)
	.loc	16 47 10
	movq	192(%rsp), %rax
	movq	200(%rsp), %rcx
	movq	112(%rsp), %rdx
	movq	%rcx, 8(%rdx)
	movq	%rax, (%rdx)
Ltmp212:
LBB24_17:
	.loc	16 49 4
	movq	264(%rsp), %rax
	movq	232(%rsp), %rcx
	xorl	%edx, %edx
	movl	%edx, %esi
	movq	%rsi, %rdx
	divq	%rcx
	movq	%rsi, %rdx
	addq	$328, %rsp
	retq
Ltmp213:
LBB24_18:
	.loc	16 52 3
	movq	232(%rsp), %rax
	movq	232(%rsp), %rcx
	subq	$1, %rcx
	andq	%rcx, %rax
	cmpq	$0, %rax
	sete	%dl
	andb	$1, %dl
	cmpb	$0, %dl
	je	LBB24_22
Ltmp214:
	.loc	16 0 3 is_stmt 0
	movq	112(%rsp), %rax
Ltmp215:
	.loc	16 53 4 is_stmt 1
	cmpq	$0, %rax
	setne	%cl
	andb	$1, %cl
	cmpb	$0, %cl
	je	LBB24_21
Ltmp216:
	.loc	16 54 12
	movq	256(%rsp), %rax
	movq	%rax, 192(%rsp)
	.loc	16 55 13
	movq	264(%rsp), %rax
	movq	232(%rsp), %rcx
	decq	%rcx
	andq	%rcx, %rax
	movq	%rax, 200(%rsp)
	.loc	16 56 10
	movq	192(%rsp), %rax
	movq	200(%rsp), %rcx
	movq	112(%rsp), %rdx
	movq	%rcx, 8(%rdx)
	movq	%rax, (%rdx)
Ltmp217:
LBB24_21:
	.loc	16 58 4
	movq	264(%rsp), %rax
	bsfq	232(%rsp), %rcx
	movl	$64, %edx
	cmoveq	%rdx, %rcx
	movb	%cl, %sil
	movq	%rcx, 56(%rsp)
	movb	%sil, %cl
	shrq	%cl, %rax
	xorl	%edi, %edi
	movq	56(%rsp), %rdx
	subq	$64, %rdx
	movl	%edi, %r8d
	movq	%r8, %r9
	cmovbq	%rax, %r9
	movq	%r9, %rax
	movq	%rdx, 48(%rsp)
	movq	%r8, %rdx
	addq	$328, %rsp
	retq
Ltmp218:
LBB24_22:
	.loc	16 61 6
	movq	232(%rsp), %rax
	bsrq	%rax, %rax
	movl	$127, %ecx
	cmoveq	%rcx, %rax
	xorq	$63, %rax
	movq	264(%rsp), %rcx
	bsrq	%rcx, %rcx
	movl	$127, %edx
	cmoveq	%rdx, %rcx
	xorq	$63, %rcx
	subl	%ecx, %eax
	movl	%eax, 188(%rsp)
	.loc	16 62 3
	cmpl	$62, 188(%rsp)
	seta	%sil
	andb	$1, %sil
	cmpb	$0, %sil
	je	LBB24_26
Ltmp219:
	.loc	16 0 3 is_stmt 0
	movq	112(%rsp), %rax
Ltmp220:
	.loc	16 63 4 is_stmt 1
	cmpq	$0, %rax
	setne	%cl
	andb	$1, %cl
	cmpb	$0, %cl
	je	LBB24_25
Ltmp221:
	.loc	16 0 4 is_stmt 0
	movq	112(%rsp), %rax
	movq	80(%rsp), %rcx
Ltmp222:
	.loc	16 64 10 is_stmt 1
	movq	%rcx, (%rax)
	movq	88(%rsp), %rdx
	movq	%rdx, 8(%rax)
Ltmp223:
LBB24_25:
	.loc	16 0 10 is_stmt 0
	xorl	%eax, %eax
	movl	%eax, %ecx
	.loc	16 66 4 is_stmt 1
	movq	%rcx, %rax
	movq	%rcx, %rdx
	addq	$328, %rsp
	retq
Ltmp224:
LBB24_26:
	.loc	16 0 4 is_stmt 0
	xorl	%eax, %eax
	movl	%eax, %ecx
	.loc	16 69 6 is_stmt 1
	movl	188(%rsp), %eax
	addl	$1, %eax
	movl	%eax, 188(%rsp)
	.loc	16 71 11
	movq	$0, 208(%rsp)
	.loc	16 72 11
	movq	256(%rsp), %rdx
	movl	$64, %eax
	movl	%eax, %esi
	subl	188(%rsp), %esi
	movl	%esi, %esi
	movl	%esi, %edi
	movq	%rcx, 40(%rsp)
	movq	%rdi, %rcx
	shlq	%cl, %rdx
	cmpq	$64, %rdi
	movq	40(%rsp), %rdi
	cmovbq	%rdx, %rdi
	movq	%rdi, 216(%rsp)
	.loc	16 73 11
	movq	264(%rsp), %rdx
	movl	188(%rsp), %esi
	movl	%esi, %edi
	movq	%rdi, %rcx
	shrq	%cl, %rdx
	cmpq	$64, %rdi
	movq	40(%rsp), %rdi
	cmovbq	%rdx, %rdi
	movq	%rdi, 200(%rsp)
	.loc	16 74 11
	movq	264(%rsp), %rdx
	subl	188(%rsp), %eax
	movl	%eax, %eax
	movl	%eax, %edi
	movq	%rdi, %rcx
	shlq	%cl, %rdx
	cmpq	$64, %rdi
	movq	40(%rsp), %rdi
	cmovbq	%rdx, %rdi
	movq	256(%rsp), %rdx
	movl	188(%rsp), %eax
	movl	%eax, %r8d
	movq	%r8, %rcx
	shrq	%cl, %rdx
	cmpq	$64, %r8
	movq	40(%rsp), %r8
	cmovbq	%rdx, %r8
	orq	%r8, %rdi
	movq	%rdi, 192(%rsp)
	jmp	LBB24_50
Ltmp225:
LBB24_27:
	.loc	16 76 3
	cmpq	$0, 232(%rsp)
	sete	%al
	andb	$1, %al
	cmpb	$0, %al
	je	LBB24_41
Ltmp226:
	.loc	16 77 4
	movq	224(%rsp), %rax
	movq	224(%rsp), %rcx
	subq	$1, %rcx
	andq	%rcx, %rax
	cmpq	$0, %rax
	sete	%dl
	andb	$1, %dl
	cmpb	$0, %dl
	je	LBB24_34
Ltmp227:
	.loc	16 0 4 is_stmt 0
	movq	112(%rsp), %rax
Ltmp228:
	.loc	16 78 5 is_stmt 1
	cmpq	$0, %rax
	setne	%cl
	andb	$1, %cl
	cmpb	$0, %cl
	je	LBB24_31
Ltmp229:
	.loc	16 79 11
	movq	256(%rsp), %rax
	movq	224(%rsp), %rcx
	decq	%rcx
	andq	%rcx, %rax
	movq	112(%rsp), %rcx
	movq	%rax, (%rcx)
	movq	$0, 8(%rcx)
Ltmp230:
LBB24_31:
	.loc	16 81 5
	cmpq	$1, 224(%rsp)
	sete	%al
	andb	$1, %al
	cmpb	$0, %al
	je	LBB24_33
Ltmp231:
	.loc	16 0 5 is_stmt 0
	movq	80(%rsp), %rax
	movq	88(%rsp), %rdx
Ltmp232:
	.loc	16 82 6 is_stmt 1
	addq	$328, %rsp
	retq
Ltmp233:
LBB24_33:
	.loc	16 84 8
	bsfq	224(%rsp), %rax
	movl	$64, %ecx
	cmoveq	%rcx, %rax
	movl	%eax, 188(%rsp)
	.loc	16 85 13
	movq	264(%rsp), %rcx
	movl	188(%rsp), %eax
	movb	%al, %dl
	movq	%rcx, 32(%rsp)
	movb	%dl, %cl
	movq	32(%rsp), %rsi
	shrq	%cl, %rsi
	xorl	%edi, %edi
	subl	$64, %eax
	movl	%edi, %r8d
	movq	%r8, %r9
	cmovbq	%rsi, %r9
	movq	%r9, 216(%rsp)
	.loc	16 86 12
	movq	256(%rsp), %rsi
	movq	264(%rsp), %r9
	movl	188(%rsp), %edi
	movb	%dil, %cl
	shrq	%cl, %rsi
	subl	$64, %edi
	movq	%r8, %r10
	cmovbq	%rsi, %r10
	negl	%edi
	movb	%dil, %cl
	shlq	%cl, %r9
	subl	$64, %edi
	cmovbq	%r9, %r8
	orq	%r10, %r8
	movq	%r8, 208(%rsp)
	.loc	16 87 5
	movq	208(%rsp), %rsi
	movq	216(%rsp), %rdx
	movl	%eax, 28(%rsp)
	movq	%rsi, %rax
	addq	$328, %rsp
	retq
Ltmp234:
LBB24_34:
	.loc	16 90 7
	movq	224(%rsp), %rax
	bsrq	%rax, %rax
	movl	$127, %ecx
	cmoveq	%rcx, %rax
	xorq	$63, %rax
	addl	$65, %eax
	movq	264(%rsp), %rcx
	bsrq	%rcx, %rcx
	movl	$127, %edx
	cmoveq	%rdx, %rcx
	xorq	$63, %rcx
	subl	%ecx, %eax
	movl	%eax, 188(%rsp)
	.loc	16 92 4
	cmpl	$64, 188(%rsp)
	sete	%sil
	andb	$1, %sil
	movb	$1, %dil
	cmpb	%sil, %dil
	je	LBB24_36
Ltmp235:
	.loc	16 97 13
	cmpl	$64, 188(%rsp)
	setb	%al
	andb	$1, %al
	movb	$1, %cl
	cmpb	%al, %cl
	je	LBB24_38
	jmp	LBB24_37
Ltmp236:
LBB24_36:
	.loc	16 94 13
	movq	$0, 208(%rsp)
	.loc	16 95 13
	movq	256(%rsp), %rax
	movq	%rax, 216(%rsp)
	.loc	16 96 13
	movq	$0, 200(%rsp)
	.loc	16 97 13
	movq	264(%rsp), %rax
	movq	%rax, 192(%rsp)
	jmp	LBB24_40
Ltmp237:
LBB24_37:
	.loc	16 102 13
	jmp	LBB24_39
Ltmp238:
LBB24_38:
	.loc	16 0 13 is_stmt 0
	xorl	%eax, %eax
	movl	%eax, %ecx
	.loc	16 99 13 is_stmt 1
	movq	$0, 208(%rsp)
	.loc	16 100 13
	movq	256(%rsp), %rdx
	movl	$64, %eax
	movl	%eax, %esi
	subl	188(%rsp), %esi
	movl	%esi, %esi
	movl	%esi, %edi
	movq	%rcx, 16(%rsp)
	movq	%rdi, %rcx
	shlq	%cl, %rdx
	cmpq	$64, %rdi
	movq	16(%rsp), %rdi
	cmovbq	%rdx, %rdi
	movq	%rdi, 216(%rsp)
	.loc	16 101 13
	movq	264(%rsp), %rdx
	movl	188(%rsp), %esi
	movl	%esi, %edi
	movq	%rdi, %rcx
	shrq	%cl, %rdx
	cmpq	$64, %rdi
	movq	16(%rsp), %rdi
	cmovbq	%rdx, %rdi
	movq	%rdi, 200(%rsp)
	.loc	16 102 13
	movq	264(%rsp), %rdx
	subl	188(%rsp), %eax
	movl	%eax, %eax
	movl	%eax, %edi
	movq	%rdi, %rcx
	shlq	%cl, %rdx
	cmpq	$64, %rdi
	movq	16(%rsp), %rdi
	cmovbq	%rdx, %rdi
	movq	256(%rsp), %rdx
	movl	188(%rsp), %eax
	movl	%eax, %r8d
	movq	%r8, %rcx
	shrq	%cl, %rdx
	cmpq	$64, %r8
	movq	16(%rsp), %r8
	cmovbq	%rdx, %r8
	orq	%r8, %rdi
	movq	%rdi, 192(%rsp)
	jmp	LBB24_40
Ltmp239:
LBB24_39:
	.loc	16 0 13 is_stmt 0
	xorl	%eax, %eax
	movl	%eax, %ecx
	.loc	16 104 13 is_stmt 1
	movq	256(%rsp), %rdx
	movl	$128, %eax
	movl	%eax, %esi
	subl	188(%rsp), %esi
	movl	%esi, %esi
	movl	%esi, %edi
	movq	%rcx, 8(%rsp)
	movq	%rdi, %rcx
	shlq	%cl, %rdx
	cmpq	$64, %rdi
	movq	8(%rsp), %rdi
	cmovbq	%rdx, %rdi
	movq	%rdi, 208(%rsp)
	.loc	16 105 13
	movq	264(%rsp), %rdx
	subl	188(%rsp), %eax
	movl	%eax, %eax
	movl	%eax, %edi
	movq	%rdi, %rcx
	shlq	%cl, %rdx
	cmpq	$64, %rdi
	movq	8(%rsp), %rdi
	cmovbq	%rdx, %rdi
	movq	256(%rsp), %rdx
	movl	188(%rsp), %eax
	subl	$64, %eax
	movl	%eax, %eax
	movl	%eax, %r8d
	movq	%r8, %rcx
	shrq	%cl, %rdx
	cmpq	$64, %r8
	movq	8(%rsp), %r8
	cmovbq	%rdx, %r8
	orq	%r8, %rdi
	movq	%rdi, 216(%rsp)
	.loc	16 106 13
	movq	$0, 200(%rsp)
	.loc	16 107 13
	movq	264(%rsp), %rdx
	movl	188(%rsp), %eax
	subl	$64, %eax
	movl	%eax, %eax
	movl	%eax, %edi
	movq	%rdi, %rcx
	shrq	%cl, %rdx
	cmpq	$64, %rdi
	movq	8(%rsp), %rdi
	cmovbq	%rdx, %rdi
	movq	%rdi, 192(%rsp)
Ltmp240:
LBB24_40:
	jmp	LBB24_49
Ltmp241:
LBB24_41:
	.loc	16 110 7
	movq	232(%rsp), %rax
	bsrq	%rax, %rax
	movl	$127, %ecx
	cmoveq	%rcx, %rax
	xorq	$63, %rax
	movq	264(%rsp), %rcx
	bsrq	%rcx, %rcx
	movl	$127, %edx
	cmoveq	%rdx, %rcx
	xorq	$63, %rcx
	subl	%ecx, %eax
	movl	%eax, 188(%rsp)
	.loc	16 112 4
	cmpl	$63, 188(%rsp)
	seta	%sil
	andb	$1, %sil
	cmpb	$0, %sil
	je	LBB24_45
Ltmp242:
	.loc	16 0 4 is_stmt 0
	movq	112(%rsp), %rax
Ltmp243:
	.loc	16 113 5 is_stmt 1
	cmpq	$0, %rax
	setne	%cl
	andb	$1, %cl
	cmpb	$0, %cl
	je	LBB24_44
Ltmp244:
	.loc	16 0 5 is_stmt 0
	movq	112(%rsp), %rax
	movq	80(%rsp), %rcx
Ltmp245:
	.loc	16 114 11 is_stmt 1
	movq	%rcx, (%rax)
	movq	88(%rsp), %rdx
	movq	%rdx, 8(%rax)
Ltmp246:
LBB24_44:
	.loc	16 0 11 is_stmt 0
	xorl	%eax, %eax
	movl	%eax, %ecx
	.loc	16 116 5 is_stmt 1
	movq	%rcx, %rax
	movq	%rcx, %rdx
	addq	$328, %rsp
	retq
Ltmp247:
LBB24_45:
	.loc	16 119 7
	movl	188(%rsp), %eax
	addl	$1, %eax
	movl	%eax, 188(%rsp)
	.loc	16 121 11
	movq	$0, 208(%rsp)
	.loc	16 122 4
	cmpl	$64, 188(%rsp)
	sete	%cl
	andb	$1, %cl
	cmpb	$0, %cl
	je	LBB24_47
Ltmp248:
	.loc	16 123 13
	movq	256(%rsp), %rax
	movq	%rax, 216(%rsp)
	.loc	16 124 13
	movq	$0, 200(%rsp)
	.loc	16 125 13
	movq	264(%rsp), %rax
	movq	%rax, 192(%rsp)
	jmp	LBB24_48
Ltmp249:
LBB24_47:
	.loc	16 0 13 is_stmt 0
	xorl	%eax, %eax
	movl	%eax, %ecx
Ltmp250:
	.loc	16 127 13 is_stmt 1
	movq	264(%rsp), %rdx
	movl	188(%rsp), %eax
	movl	%eax, %esi
	movq	%rcx, (%rsp)
	movq	%rsi, %rcx
	shrq	%cl, %rdx
	cmpq	$64, %rsi
	movq	(%rsp), %rsi
	cmovbq	%rdx, %rsi
	movq	%rsi, 200(%rsp)
	.loc	16 128 13
	movq	264(%rsp), %rdx
	movl	$64, %eax
	movl	%eax, %edi
	subl	188(%rsp), %edi
	movl	%edi, %edi
	movl	%edi, %esi
	movq	%rsi, %rcx
	shlq	%cl, %rdx
	cmpq	$64, %rsi
	movq	(%rsp), %rsi
	cmovbq	%rdx, %rsi
	movq	256(%rsp), %rdx
	movl	188(%rsp), %edi
	movl	%edi, %r8d
	movq	%r8, %rcx
	shrq	%cl, %rdx
	cmpq	$64, %r8
	movq	(%rsp), %r8
	cmovbq	%rdx, %r8
	orq	%r8, %rsi
	movq	%rsi, 192(%rsp)
	.loc	16 129 13
	movq	256(%rsp), %rdx
	subl	188(%rsp), %eax
	movl	%eax, %eax
	movl	%eax, %esi
	movq	%rsi, %rcx
	shlq	%cl, %rdx
	cmpq	$64, %rsi
	movq	(%rsp), %rsi
	cmovbq	%rdx, %rsi
	movq	%rsi, 216(%rsp)
Ltmp251:
LBB24_48:
	jmp	LBB24_49
Ltmp252:
LBB24_49:
	jmp	LBB24_50
Ltmp253:
LBB24_50:
	.loc	16 134 2
	movl	$0, 172(%rsp)
	.loc	16 135 2
	movq	$0, 160(%rsp)
	movq	$0, 152(%rsp)
Ltmp254:
LBB24_51:
	.loc	16 137 8
	cmpl	$0, 188(%rsp)
	seta	%al
	andb	$1, %al
	cmpb	$0, %al
	je	LBB24_54
Ltmp255:
	.loc	16 138 11
	movq	192(%rsp), %rax
	movq	200(%rsp), %rcx
	shldq	$1, %rax, %rcx
	movq	%rcx, 200(%rsp)
	.loc	16 139 11
	movq	192(%rsp), %rax
	movq	216(%rsp), %rcx
	shldq	$1, %rcx, %rax
	movq	%rax, 192(%rsp)
	.loc	16 140 11
	movq	208(%rsp), %rax
	movq	216(%rsp), %rcx
	shldq	$1, %rax, %rcx
	movq	%rcx, 216(%rsp)
	.loc	16 141 11
	movq	208(%rsp), %rax
	addq	%rax, %rax
	movl	172(%rsp), %edx
	movl	%edx, %ecx
	orq	%rcx, %rax
	movq	%rax, 208(%rsp)
	.loc	16 143 9
	movq	192(%rsp), %rax
	movq	200(%rsp), %rcx
	movq	%rcx, 160(%rsp)
	movq	%rax, 152(%rsp)
	.loc	16 144 3
	movq	152(%rsp), %rax
	movq	160(%rsp), %rcx
	notq	%rcx
	notq	%rax
	movq	96(%rsp), %rsi
	addq	%rsi, %rax
	movq	104(%rsp), %rdi
	adcq	%rdi, %rcx
	sarq	$63, %rcx
	movq	%rcx, 144(%rsp)
	movq	%rcx, 136(%rsp)
	.loc	16 145 9
	movl	136(%rsp), %edx
	andl	$1, %edx
	movl	%edx, 172(%rsp)
	.loc	16 146 9
	movq	136(%rsp), %rcx
	movq	144(%rsp), %r8
	andq	%r8, %rdi
	andq	%rcx, %rsi
	movq	152(%rsp), %rcx
	movq	160(%rsp), %r8
	subq	%rsi, %rcx
	sbbq	%rdi, %r8
	movq	%rcx, 152(%rsp)
	movq	%r8, 160(%rsp)
	.loc	16 147 5
	movq	152(%rsp), %rcx
	movq	160(%rsp), %rsi
	movq	%rsi, 200(%rsp)
	movq	%rcx, 192(%rsp)
Ltmp256:
	.loc	16 137 19
	movl	188(%rsp), %eax
	subl	$1, %eax
	movl	%eax, 188(%rsp)
	jmp	LBB24_51
Ltmp257:
LBB24_54:
	.loc	16 150 2
	movq	208(%rsp), %rax
	movq	216(%rsp), %rcx
	shldq	$1, %rax, %rcx
	addq	%rax, %rax
	movl	172(%rsp), %edx
	movl	%edx, %esi
	orq	%rsi, %rax
	movq	%rcx, 128(%rsp)
	movq	%rax, 120(%rsp)
	movq	112(%rsp), %rax
	.loc	16 151 2
	cmpq	$0, %rax
	setne	%dil
	andb	$1, %dil
	cmpb	$0, %dil
	je	LBB24_56
Ltmp258:
	.loc	16 152 8
	movq	152(%rsp), %rax
	movq	160(%rsp), %rcx
	movq	112(%rsp), %rdx
	movq	%rcx, 8(%rdx)
	movq	%rax, (%rdx)
Ltmp259:
LBB24_56:
	.loc	16 155 2
	movq	120(%rsp), %rax
	movq	128(%rsp), %rdx
	addq	$328, %rsp
	retq
Ltmp260:
Lfunc_end24:
	.cfi_endproc

	.p2align	4, 0x90
_odinasm.pt0:
Lfunc_begin25:
	.loc	5 6 0
	.cfi_startproc
	movq	%rdi, -24(%rsp)
Ltmp261:
	movq	%rsi, -32(%rsp)
Ltmp262:
	movq	-24(%rsp), %rax
	movq	%rax, -8(%rsp)
	movq	-32(%rsp), %rcx
	movq	%rcx, -16(%rsp)
Ltmp263:
	.loc	5 7 3 prologue_end
	addq	%rcx, %rax
	retq
Ltmp264:
Lfunc_end25:
	.cfi_endproc

	.p2align	4, 0x90
_odinasm.pt1:
Lfunc_begin26:
	.loc	5 10 0
	.cfi_startproc
	movq	%rdi, -16(%rsp)
Ltmp265:
	movq	-16(%rsp), %rax
	movq	%rax, -8(%rsp)
Ltmp266:
	.loc	5 11 3 prologue_end
	retq
Ltmp267:
Lfunc_end26:
	.cfi_endproc

	.p2align	4, 0x90
_runtime.slice_expr_error_lo_hi:
Lfunc_begin27:
	.loc	13 74 0
	.cfi_startproc
	subq	$104, %rsp
	.cfi_def_cfa_offset 112
	movq	112(%rsp), %rax
Ltmp268:
	movq	%r9, 48(%rsp)
Ltmp269:
	movq	%r8, 40(%rsp)
Ltmp270:
	movl	%ecx, 36(%rsp)
Ltmp271:
	movl	%edx, 32(%rsp)
Ltmp272:
	movq	%rsi, 24(%rsp)
	movq	%rdi, 16(%rsp)
Ltmp273:
	movq	%rax, 8(%rsp)
Ltmp274:
	xorl	%eax, %eax
	movl	%eax, %ecx
	movq	16(%rsp), %rdx
	movq	%rdx, 88(%rsp)
	movq	24(%rsp), %rsi
	movq	%rsi, 96(%rsp)
	movl	32(%rsp), %eax
	movl	%eax, 84(%rsp)
	movl	36(%rsp), %edi
	movl	%edi, 80(%rsp)
	movq	40(%rsp), %r8
	movq	%r8, 72(%rsp)
	movq	48(%rsp), %r9
	movq	%r9, 64(%rsp)
	movq	8(%rsp), %r10
	movq	%r10, 56(%rsp)
Ltmp275:
	.loc	13 75 2 prologue_end
	cmpq	%r8, %rcx
	setle	%r11b
	andb	$1, %r11b
	cmpb	$0, %r11b
	je	LBB27_6
Ltmp276:
	.loc	13 0 2 is_stmt 0
	movq	40(%rsp), %rax
	movq	8(%rsp), %rcx
	.loc	13 75 2
	cmpq	%rcx, %rax
	setle	%dl
	andb	$1, %dl
	cmpb	$0, %dl
	je	LBB27_6
Ltmp277:
	.loc	13 0 2
	movq	40(%rsp), %rax
	movq	48(%rsp), %rcx
	.loc	13 75 2
	cmpq	%rcx, %rax
	setle	%dl
	andb	$1, %dl
	cmpb	$0, %dl
	je	LBB27_6
Ltmp278:
	.loc	13 0 2
	movq	48(%rsp), %rax
	movq	8(%rsp), %rcx
	.loc	13 75 2
	cmpq	%rcx, %rax
	setle	%dl
	andb	$1, %dl
	cmpb	$0, %dl
	je	LBB27_6
Ltmp279:
	.loc	13 76 3 is_stmt 1
	addq	$104, %rsp
	retq
Ltmp280:
LBB27_6:
	.loc	13 78 2
	movq	%rsp, %rax
	movq	8(%rsp), %rcx
	movq	%rcx, (%rax)
	movq	16(%rsp), %rdi
	movq	24(%rsp), %rsi
	movl	32(%rsp), %edx
	movl	36(%rsp), %r8d
	movl	%r8d, %ecx
	movq	40(%rsp), %rax
	movq	%rax, %r8
	movq	48(%rsp), %r9
	callq	_runtime.slice_handle_error
Ltmp281:
Lfunc_end27:
	.cfi_endproc

	.p2align	4, 0x90
_runtime.print_string:
Lfunc_begin28:
	.loc	7 117 0
	.cfi_startproc
	subq	$56, %rsp
	.cfi_def_cfa_offset 64
	movq	%rsi, 8(%rsp)
	movq	%rdi, (%rsp)
Ltmp282:
	movq	(%rsp), %rax
	movq	%rax, 40(%rsp)
	movq	8(%rsp), %rcx
	movq	%rcx, 48(%rsp)
	movq	$0, 32(%rsp)
Ltmp283:
	.loc	7 118 7 prologue_end
	movq	%rcx, 24(%rsp)
	movq	%rax, 16(%rsp)
	movq	16(%rsp), %rdi
	movq	24(%rsp), %rsi
	callq	_runtime.os_write
	movq	%rax, 32(%rsp)
	.loc	7 119 2
	movq	32(%rsp), %rax
	movq	%rax, 32(%rsp)
	addq	$56, %rsp
	retq
Ltmp284:
Lfunc_end28:
	.cfi_endproc

	.p2align	4, 0x90
_runtime.print_byte:
Lfunc_begin29:
	.loc	7 133 0
	.cfi_startproc
	subq	$88, %rsp
	.cfi_def_cfa_offset 96
Ltmp285:
	movb	%dil, 15(%rsp)
Ltmp286:
	movb	15(%rsp), %al
	movb	%al, 87(%rsp)
	movq	$0, 72(%rsp)
Ltmp287:
	.loc	7 134 7 prologue_end
	xorps	%xmm0, %xmm0
	movaps	%xmm0, 48(%rsp)
	movb	$0, 32(%rsp)
	leaq	32(%rsp), %rcx
	movq	%rcx, 16(%rsp)
	movq	$1, 24(%rsp)
	movq	16(%rsp), %rcx
	movq	24(%rsp), %rdx
	movb	%al, (%rcx)
	movq	%rcx, 48(%rsp)
	movq	%rdx, 56(%rsp)
	movq	48(%rsp), %rdi
	movq	56(%rsp), %rsi
	callq	_runtime.os_write
	movq	%rax, 72(%rsp)
	.loc	7 135 2
	movq	72(%rsp), %rax
	movq	%rax, 72(%rsp)
	addq	$88, %rsp
	retq
Ltmp288:
Lfunc_end29:
	.cfi_endproc

	.p2align	4, 0x90
_odinasm.pt2:
Lfunc_begin30:
	.loc	5 14 0
	.cfi_startproc
	movq	%rsi, -24(%rsp)
	movq	%rdi, -32(%rsp)
Ltmp289:
	movq	-32(%rsp), %rax
	movq	%rax, -16(%rsp)
	movq	-24(%rsp), %rcx
	movq	%rcx, -8(%rsp)
Ltmp290:
	.loc	5 15 3 prologue_end
	movq	%rcx, %rdx
	retq
Ltmp291:
Lfunc_end30:
	.cfi_endproc

	.p2align	4, 0x90
_odinasm.pt3:
Lfunc_begin31:
	.loc	5 18 0
	.cfi_startproc
	movq	%rsi, -24(%rsp)
	movq	%rdi, -32(%rsp)
Ltmp292:
	movq	-32(%rsp), %rax
	movq	%rax, -16(%rsp)
	movq	-24(%rsp), %rcx
	movq	%rcx, -8(%rsp)
Ltmp293:
	.loc	5 19 3 prologue_end
	movq	%rcx, %rdx
	retq
Ltmp294:
Lfunc_end31:
	.cfi_endproc

	.p2align	4, 0x90
_odinasm.pt4:
Lfunc_begin32:
	.loc	5 22 0
	.cfi_startproc
	movq	%rsi, -24(%rsp)
	movq	%rdi, -32(%rsp)
Ltmp295:
	movq	-32(%rsp), %rax
	movq	%rax, -16(%rsp)
	movq	-24(%rsp), %rcx
	movq	%rcx, -8(%rsp)
Ltmp296:
	.loc	5 23 3 prologue_end
	movq	%rcx, %rax
	retq
Ltmp297:
Lfunc_end32:
	.cfi_endproc

	.p2align	4, 0x90
_runtime.print_u64:
Lfunc_begin33:
	.loc	7 178 0
	.cfi_startproc
	subq	$216, %rsp
	.cfi_def_cfa_offset 224
	movq	%rdi, 24(%rsp)
Ltmp298:
	xorl	%esi, %esi
	movq	24(%rsp), %rax
	movq	%rax, 208(%rsp)
Ltmp299:
	.loc	7 179 2 prologue_end
	leaq	79(%rsp), %rcx
Ltmp300:
	movq	%rcx, %rdi
	movl	$129, %edx
	callq	_memset
Ltmp301:
	.loc	7 180 2
	movq	$129, 64(%rsp)
	.loc	7 181 2
	movq	$10, 56(%rsp)
	movq	24(%rsp), %rax
	.loc	7 182 2
	movq	%rax, 48(%rsp)
Ltmp302:
LBB33_2:
	.loc	7 183 6
	movq	48(%rsp), %rax
	cmpq	56(%rsp), %rax
	setae	%cl
	andb	$1, %cl
	cmpb	$0, %cl
	je	LBB33_4
Ltmp303:
	.loc	7 184 5
	movq	64(%rsp), %rax
	subq	$1, %rax
	movq	%rax, 64(%rsp)
	.loc	7 184 16 is_stmt 0
	movq	64(%rsp), %rax
	movq	"_runtime._INTEGER_DIGITS_VAR-529"(%rip), %rcx
	movq	48(%rsp), %rdx
	movq	%rax, 16(%rsp)
	movq	%rdx, %rax
	xorl	%esi, %esi
	movl	%esi, %edx
	divq	56(%rsp)
	movb	(%rcx,%rdx), %dil
	movq	16(%rsp), %rcx
	movb	%dil, 79(%rsp,%rcx)
	.loc	7 185 5 is_stmt 1
	movq	56(%rsp), %rdx
	movq	48(%rsp), %r8
	movq	%r8, %rax
	xorl	%esi, %esi
	movq	%rdx, 8(%rsp)
	movl	%esi, %edx
	movq	8(%rsp), %r8
	divq	%r8
	movq	%rax, 48(%rsp)
Ltmp304:
	.loc	7 186 2
	jmp	LBB33_2
Ltmp305:
LBB33_4:
	.loc	7 187 4
	movq	64(%rsp), %rax
	decq	%rax
	movq	%rax, 64(%rsp)
	.loc	7 187 15 is_stmt 0
	movq	64(%rsp), %rax
	movq	"_runtime._INTEGER_DIGITS_VAR-529"(%rip), %rcx
	movq	48(%rsp), %rdx
	movq	56(%rsp), %rsi
	xorl	%edi, %edi
	movl	%edi, %r8d
	movq	%rax, (%rsp)
	movq	%rdx, %rax
	movq	%r8, %rdx
	divq	%rsi
	movb	(%rcx,%rdx), %r9b
	movq	(%rsp), %rax
	movb	%r9b, 79(%rsp,%rax)
	.loc	7 189 2 is_stmt 1
	movq	64(%rsp), %rax
	leaq	79(%rsp,%rax), %rcx
	movl	$129, %edx
	subq	%rax, %rdx
	movq	%rcx, 32(%rsp)
	movq	%rdx, 40(%rsp)
	movq	32(%rsp), %rdi
	movq	40(%rsp), %rsi
	callq	_runtime.os_write
Ltmp306:
	.loc	7 190 1
	addq	$216, %rsp
	retq
Ltmp307:
Lfunc_end33:
	.cfi_endproc

	.p2align	4, 0x90
_odinasm.pt5:
Lfunc_begin34:
	.loc	5 26 0
	.cfi_startproc
	movq	%rsi, -24(%rsp)
	movq	%rdi, -32(%rsp)
Ltmp308:
	movq	-32(%rsp), %rax
	movq	%rax, -16(%rsp)
	movq	-24(%rsp), %rcx
	movq	%rcx, -8(%rsp)
Ltmp309:
	.loc	5 27 3 prologue_end
	movq	%rcx, %rdx
	retq
Ltmp310:
Lfunc_end34:
	.cfi_endproc

	.p2align	4, 0x90
_odinasm.pt6:
Lfunc_begin35:
	.loc	5 31 0
	.cfi_startproc
	subq	$120, %rsp
	.cfi_def_cfa_offset 128
Ltmp311:
	movq	%rdx, 56(%rsp)
Ltmp312:
	movq	%rsi, 48(%rsp)
	movq	%rdi, 40(%rsp)
Ltmp313:
	movq	40(%rsp), %rax
	movq	%rax, 104(%rsp)
	movq	48(%rsp), %rcx
	movq	%rcx, 112(%rsp)
	movq	56(%rsp), %rdx
Ltmp314:
	.loc	5 32 3 prologue_end
	movq	(%rdx), %rcx
	movq	8(%rdx), %r8
	xorps	%xmm0, %xmm0
	movaps	%xmm0, 80(%rsp)
	movq	$0, 96(%rsp)
	movq	l_ggv$3f+32(%rip), %rsi
	movq	%rsp, %rdi
	movq	%rsi, 32(%rdi)
	movq	l_ggv$3f+24(%rip), %rsi
	movq	%rsi, 24(%rdi)
	movq	l_ggv$3f+16(%rip), %rsi
	movq	%rsi, 16(%rdi)
	movq	l_ggv$3f+8(%rip), %rsi
	movq	%rsi, 8(%rdi)
	movq	l_ggv$3f(%rip), %rsi
	movq	%rsi, (%rdi)
	leaq	80(%rsp), %rdi
	movq	%rax, %rsi
	movq	48(%rsp), %rdx
	movq	56(%rsp), %r9
	callq	_strings.clone
	movq	80(%rsp), %rax
	movq	88(%rsp), %rcx
	movq	%rcx, 72(%rsp)
	movq	%rax, 64(%rsp)
	.loc	5 33 3
	movq	64(%rsp), %rax
	movq	72(%rsp), %rdx
	addq	$120, %rsp
	retq
Ltmp315:
Lfunc_end35:
	.cfi_endproc

	.p2align	4, 0x90
_odinasm.pt7:
Lfunc_begin36:
	.loc	5 36 0
	.cfi_startproc
	movq	%rdi, -16(%rsp)
Ltmp316:
	movq	-16(%rsp), %rax
	movq	%rax, -8(%rsp)
Ltmp317:
	.loc	5 37 1 prologue_end
	retq
Ltmp318:
Lfunc_end36:
	.cfi_endproc

	.p2align	4, 0x90
_odinasm.pt8:
Lfunc_begin37:
	.loc	5 39 0
	.cfi_startproc
	subq	$40, %rsp
	.cfi_def_cfa_offset 48
Ltmp319:
	movq	%rdx, 16(%rsp)
Ltmp320:
	movq	%rsi, 8(%rsp)
	movq	%rdi, (%rsp)
Ltmp321:
	movq	(%rsp), %rax
	movq	%rax, 24(%rsp)
	movq	8(%rsp), %rcx
	movq	%rcx, 32(%rsp)
	movq	16(%rsp), %rdx
Ltmp322:
	.loc	5 40 5 prologue_end
	movq	%rcx, %rdi
	movq	%rdx, %rsi
	callq	_odinasm.pt1
Ltmp323:
	.loc	5 41 1
	addq	$40, %rsp
	retq
Ltmp324:
Lfunc_end37:
	.cfi_endproc

	.p2align	4, 0x90
_runtime.print_i64:
Lfunc_begin38:
	.loc	7 193 0
	.cfi_startproc
	subq	$200, %rsp
	.cfi_def_cfa_offset 208
	movq	%rdi, 16(%rsp)
Ltmp325:
	xorl	%esi, %esi
	xorl	%eax, %eax
	movl	%eax, %ecx
	movq	16(%rsp), %rdx
	movq	%rdx, 192(%rsp)
Ltmp326:
	.loc	7 196 2 prologue_end
	movq	%rdx, 184(%rsp)
	.loc	7 197 2
	cmpq	$0, 184(%rsp)
	setl	%dil
	andb	$1, %dil
	movb	%dil, 183(%rsp)
	.loc	7 198 4
	movq	184(%rsp), %r8
	subq	%r8, %rcx
	cmpq	$0, %r8
	cmovlq	%rcx, %r8
	movq	%r8, 184(%rsp)
	.loc	7 200 2
	leaq	54(%rsp), %rcx
Ltmp327:
	movq	%rcx, %rdi
	movl	$129, %edx
	callq	_memset
Ltmp328:
	.loc	7 201 2
	movq	$129, 40(%rsp)
Ltmp329:
LBB38_2:
	.loc	7 202 6
	cmpq	$10, 184(%rsp)
	setge	%al
	andb	$1, %al
	cmpb	$0, %al
	je	LBB38_4
Ltmp330:
	.loc	7 203 5
	movq	40(%rsp), %rax
	subq	$1, %rax
	movq	%rax, 40(%rsp)
	.loc	7 203 16 is_stmt 0
	movq	40(%rsp), %rax
	movq	"_runtime._INTEGER_DIGITS_VAR-529"(%rip), %rcx
	movq	184(%rsp), %rdx
	movq	%rax, 8(%rsp)
	movq	%rdx, %rax
	cqto
	movl	$10, %esi
	idivq	%rsi
	movb	(%rcx,%rdx), %dil
	movq	8(%rsp), %rcx
	movb	%dil, 54(%rsp,%rcx)
	.loc	7 204 5 is_stmt 1
	movq	184(%rsp), %rdx
	movq	%rdx, %rax
	cqto
	idivq	%rsi
	movq	%rax, 184(%rsp)
Ltmp331:
	.loc	7 205 2
	jmp	LBB38_2
Ltmp332:
LBB38_4:
	.loc	7 206 4
	movq	40(%rsp), %rax
	subq	$1, %rax
	movq	%rax, 40(%rsp)
	.loc	7 206 15 is_stmt 0
	movq	40(%rsp), %rax
	movq	"_runtime._INTEGER_DIGITS_VAR-529"(%rip), %rcx
	movq	184(%rsp), %rdx
	movq	%rax, (%rsp)
	movq	%rdx, %rax
	cqto
	movl	$10, %esi
	idivq	%rsi
	movb	(%rcx,%rdx), %dil
	movq	(%rsp), %rcx
	movb	%dil, 54(%rsp,%rcx)
	.loc	7 207 2 is_stmt 1
	cmpb	$0, 183(%rsp)
	je	LBB38_6
Ltmp333:
	.loc	7 208 5
	movq	40(%rsp), %rax
	subq	$1, %rax
	movq	%rax, 40(%rsp)
	.loc	7 208 16 is_stmt 0
	movq	40(%rsp), %rax
	movb	$45, 54(%rsp,%rax)
Ltmp334:
LBB38_6:
	.loc	7 211 2 is_stmt 1
	movq	40(%rsp), %rax
	leaq	54(%rsp,%rax), %rcx
	movl	$129, %edx
	subq	%rax, %rdx
	movq	%rcx, 24(%rsp)
	movq	%rdx, 32(%rsp)
	movq	24(%rsp), %rdi
	movq	32(%rsp), %rsi
	callq	_runtime.os_write
Ltmp335:
	.loc	7 212 1
	addq	$200, %rsp
	retq
Ltmp336:
Lfunc_end38:
	.cfi_endproc

	.p2align	4, 0x90
_odinasm.pt9:
Lfunc_begin39:
	.loc	5 43 0
	.cfi_startproc
	subq	$40, %rsp
	.cfi_def_cfa_offset 48
Ltmp337:
	movq	%rdx, 16(%rsp)
Ltmp338:
	movq	%rsi, 8(%rsp)
	movq	%rdi, (%rsp)
Ltmp339:
	movq	(%rsp), %rax
	movq	%rax, 24(%rsp)
	movq	8(%rsp), %rcx
	movq	%rcx, 32(%rsp)
	movq	16(%rsp), %rdx
Ltmp340:
	.loc	5 44 5 prologue_end
	movq	%rax, %rdi
	movq	%rdx, %rsi
	callq	_odinasm.pt7
Ltmp341:
	.loc	5 45 1
	addq	$40, %rsp
	retq
Ltmp342:
Lfunc_end39:
	.cfi_endproc

	.p2align	4, 0x90
_odinasm.pt10:
Lfunc_begin40:
	.loc	5 47 0
	.cfi_startproc
	movq	%rsi, -32(%rsp)
	movq	%rdi, -40(%rsp)
Ltmp343:
	movq	-40(%rsp), %rax
	movq	%rax, -16(%rsp)
	movq	-32(%rsp), %rcx
	movq	%rcx, -8(%rsp)
Ltmp344:
	.loc	5 48 5 prologue_end
	movq	%rax, -24(%rsp)
	.loc	5 49 5
	movq	-24(%rsp), %rax
	retq
Ltmp345:
Lfunc_end40:
	.cfi_endproc

	.p2align	4, 0x90
_runtime.print_caller_location:
Lfunc_begin41:
	.loc	7 218 0
	.cfi_startproc
	subq	$40, %rsp
	.cfi_def_cfa_offset 48
	leaq	48(%rsp), %rax
	movq	%rax, 32(%rsp)
Ltmp346:
	.loc	7 218 79 prologue_end
	jmp	LBB41_1
LBB41_1:
	.loc	7 0 79 is_stmt 0
	movq	32(%rsp), %rax
Ltmp347:
	.loc	7 219 2 is_stmt 1
	movq	(%rax), %rdi
	movq	8(%rax), %rsi
	callq	_runtime.print_string
	.loc	7 221 3
	movl	$40, %edi
	movq	%rax, 24(%rsp)
	callq	_runtime.print_byte
	movq	32(%rsp), %rcx
	.loc	7 222 3
	movslq	16(%rcx), %rdi
	movq	%rax, 16(%rsp)
	callq	_runtime.print_u64
	.loc	7 223 3
	movl	$58, %edi
	callq	_runtime.print_byte
	movq	32(%rsp), %rcx
	.loc	7 224 3
	movslq	20(%rcx), %rdi
	movq	%rax, 8(%rsp)
	callq	_runtime.print_u64
	.loc	7 225 3
	movl	$41, %edi
	callq	_runtime.print_byte
Ltmp348:
	.loc	7 235 1
	addq	$40, %rsp
	retq
Ltmp349:
Lfunc_end41:
	.cfi_endproc

	.p2align	4, 0x90
_odinasm.pt11:
Lfunc_begin42:
	.loc	5 54 0
	.cfi_startproc
	movq	%rsi, -24(%rsp)
	movq	%rdi, -32(%rsp)
Ltmp350:
	movq	-32(%rsp), %rax
	movq	%rax, -16(%rsp)
	movq	-24(%rsp), %rcx
	movq	%rcx, -8(%rsp)
Ltmp351:
	.loc	5 55 8 prologue_end
	movq	%rax, _odinasm.p2(%rip)
Ltmp352:
	.loc	5 56 1
	retq
Ltmp353:
Lfunc_end42:
	.cfi_endproc

	.p2align	4, 0x90
_odinasm.pt12:
Lfunc_begin43:
	.loc	5 59 0
	.cfi_startproc
	movq	%rsi, -24(%rsp)
	movq	%rdi, -32(%rsp)
Ltmp354:
	movq	-32(%rsp), %rax
	movq	%rax, -16(%rsp)
	movq	-24(%rsp), %rcx
	movq	%rcx, -8(%rsp)
Ltmp355:
	.loc	5 60 7 prologue_end
	movq	%rcx, _odinasm.i(%rip)
Ltmp356:
	.loc	5 61 1
	retq
Ltmp357:
Lfunc_end43:
	.cfi_endproc

	.p2align	4, 0x90
_runtime.mem_alloc:
Lfunc_begin44:
	.loc	12 141 0
	.cfi_startproc
	subq	$200, %rsp
	.cfi_def_cfa_offset 208
	movq	%rdi, %rax
	leaq	208(%rsp), %r10
Ltmp358:
	movq	%r9, 136(%rsp)
Ltmp359:
	movq	%rdx, 128(%rsp)
Ltmp360:
	movq	%rsi, 120(%rsp)
Ltmp361:
	movq	%rdi, 112(%rsp)
	movq	%r8, 104(%rsp)
	movq	%rcx, 96(%rsp)
	movq	%rax, 88(%rsp)
	movq	%r10, 80(%rsp)
Ltmp362:
	movq	120(%rsp), %rax
	movq	%rax, 192(%rsp)
	movq	128(%rsp), %rcx
	movq	%rcx, 184(%rsp)
	movq	104(%rsp), %rdx
	movq	%rdx, 176(%rsp)
	movq	96(%rsp), %rsi
	movq	%rsi, 168(%rsp)
	movq	136(%rsp), %rdi
Ltmp363:
	.loc	12 142 2 prologue_end
	cmpq	$0, %rax
	sete	%r8b
	andb	$1, %r8b
	cmpb	$0, %r8b
	movq	%rdi, 72(%rsp)
	jne	LBB44_3
Ltmp364:
	cmpq	$0, 168(%rsp)
	sete	%al
	andb	$1, %al
	cmpb	$0, %al
	je	LBB44_4
Ltmp365:
LBB44_3:
	.loc	12 0 2 is_stmt 0
	movq	112(%rsp), %rax
Ltmp366:
	.loc	12 143 3 is_stmt 1
	movq	$0, 8(%rax)
	movq	$0, (%rax)
	movb	$0, 16(%rax)
	movq	88(%rsp), %rax
	addq	$200, %rsp
	retq
Ltmp367:
LBB44_4:
	.loc	12 145 2
	movq	168(%rsp), %rax
	movq	176(%rsp), %rsi
	xorps	%xmm0, %xmm0
	movaps	%xmm0, 144(%rsp)
	movq	$0, 160(%rsp)
	movq	80(%rsp), %rcx
	movq	32(%rcx), %rdx
	movq	%rsp, %rdi
	movq	%rdx, 40(%rdi)
	movq	24(%rcx), %rdx
	movq	%rdx, 32(%rdi)
	movq	16(%rcx), %rdx
	movq	%rdx, 24(%rdi)
	movq	(%rcx), %rdx
	movq	8(%rcx), %r8
	movq	%r8, 16(%rdi)
	movq	%rdx, 8(%rdi)
	movq	72(%rsp), %rdx
	movq	%rdx, 48(%rdi)
	movq	$0, (%rdi)
	xorl	%r9d, %r9d
	movl	%r9d, %edi
	leaq	144(%rsp), %r8
	movq	%rdi, 64(%rsp)
	movq	%r8, %rdi
	movl	%r9d, %edx
	movq	120(%rsp), %rcx
	movq	128(%rsp), %r8
	movq	64(%rsp), %r9
	callq	*%rax
	movb	160(%rsp), %r10b
	movq	144(%rsp), %rax
	movq	152(%rsp), %rcx
	movq	112(%rsp), %rsi
	movq	%rcx, 8(%rsi)
	movq	%rax, (%rsi)
	movb	%r10b, 16(%rsi)
	movq	88(%rsp), %rax
	addq	$200, %rsp
	retq
Ltmp368:
Lfunc_end44:
	.cfi_endproc

	.p2align	4, 0x90
_odinasm.string_from_ptr:
Lfunc_begin45:
	.loc	5 63 0
	.cfi_startproc
	movq	%rdi, -64(%rsp)
Ltmp369:
	movq	%rsi, -72(%rsp)
Ltmp370:
	movq	-64(%rsp), %rax
	movq	%rax, -8(%rsp)
	movq	-72(%rsp), %rcx
	movq	%rcx, -16(%rsp)
	xorps	%xmm0, %xmm0
	movaps	%xmm0, -40(%rsp)
Ltmp371:
	.loc	5 64 2 prologue_end
	movaps	%xmm0, -56(%rsp)
	movq	$0, -48(%rsp)
	movq	$0, -56(%rsp)
	movq	%rax, -56(%rsp)
	movq	%rcx, -48(%rsp)
	movq	-56(%rsp), %rdx
Ltmp372:
	movq	-48(%rsp), %rsi
	movq	%rsi, -32(%rsp)
	movq	%rdx, -40(%rsp)
	movq	%rdx, %rax
	movq	%rsi, %rdx
	retq
Ltmp373:
Lfunc_end45:
	.cfi_endproc

	.p2align	4, 0x90
_odinasm.main:
Lfunc_begin46:
	.loc	5 67 0
	.cfi_startproc
	subq	$232, %rsp
	.cfi_def_cfa_offset 240
Ltmp374:
	movq	%rdi, 24(%rsp)
Ltmp375:
	movl	$65, %eax
	movl	$66, %esi
Ltmp376:
	.loc	5 68 3 prologue_end
	movq	%rax, %rdi
	movq	24(%rsp), %rdx
	movq	%rax, 16(%rsp)
	callq	_odinasm.pt0
	movq	%rax, 224(%rsp)
	movq	16(%rsp), %rdi
	movq	24(%rsp), %rsi
	.loc	5 69 3
	callq	_odinasm.pt1
	movq	%rax, 216(%rsp)
	.loc	5 70 3
	movq	$65, 208(%rsp)
	leaq	208(%rsp), %rax
	movq	%rax, 192(%rsp)
	movabsq	$4683743612465315841, %rax
	movq	%rax, 200(%rsp)
	movq	192(%rsp), %rdi
	movq	200(%rsp), %rsi
	movq	24(%rsp), %rdx
	callq	_odinasm.pt2
	movq	%rdx, 184(%rsp)
	movq	%rax, 176(%rsp)
	.loc	5 71 3
	movq	$67, 160(%rsp)
	movq	$66, 152(%rsp)
	movq	$65, 144(%rsp)
	leaq	144(%rsp), %rax
	movq	%rax, 128(%rsp)
	movq	$3, 136(%rsp)
	movq	128(%rsp), %rdi
	movq	136(%rsp), %rsi
	movq	24(%rsp), %rdx
	callq	_odinasm.pt3
	movq	%rdx, 120(%rsp)
	movq	%rax, 112(%rsp)
	.loc	5 72 3
	leaq	L_csbs$8c(%rip), %rax
	movl	$29, %ecx
	movq	%rax, %rdi
	movq	%rcx, %rsi
	movq	24(%rsp), %rdx
	movq	%rax, 8(%rsp)
	movq	%rcx, (%rsp)
	callq	_odinasm.pt4
	movq	%rax, 104(%rsp)
	movq	8(%rsp), %rdi
	movq	(%rsp), %rsi
	movq	24(%rsp), %rdx
	.loc	5 73 3
	callq	_odinasm.pt5
	movq	%rdx, 96(%rsp)
	movq	%rax, 88(%rsp)
	movq	8(%rsp), %rdi
	movq	(%rsp), %rsi
	movq	24(%rsp), %rdx
	.loc	5 74 3
	callq	_odinasm.pt6
	movq	%rdx, 80(%rsp)
	movq	%rax, 72(%rsp)
	movq	8(%rsp), %rdi
	movq	(%rsp), %rsi
	movq	24(%rsp), %rdx
	.loc	5 75 3
	callq	_odinasm.pt8
	movq	8(%rsp), %rdi
	movq	(%rsp), %rsi
	movq	24(%rsp), %rdx
	.loc	5 76 3
	callq	_odinasm.pt9
	movq	8(%rsp), %rdi
	movq	(%rsp), %rsi
	movq	24(%rsp), %rdx
	.loc	5 77 3
	callq	_odinasm.pt10
	movq	%rax, 64(%rsp)
	movq	8(%rsp), %rdi
	movq	(%rsp), %rsi
	movq	24(%rsp), %rdx
	.loc	5 78 3
	callq	_odinasm.pt11
	movq	8(%rsp), %rdi
	movq	(%rsp), %rsi
	movq	24(%rsp), %rdx
	.loc	5 79 3
	callq	_odinasm.pt12
	movq	8(%rsp), %rax
	.loc	5 80 3
	movq	%rax, 48(%rsp)
	movq	$29, 56(%rsp)
	.loc	5 81 3
	movq	48(%rsp), %rdi
	movq	(%rsp), %rsi
	movq	24(%rsp), %rdx
	callq	_odinasm.string_from_ptr
	movq	%rdx, 40(%rsp)
	movq	%rax, 32(%rsp)
Ltmp377:
	.loc	5 82 1
	addq	$232, %rsp
	retq
Ltmp378:
Lfunc_end46:
	.cfi_endproc

	.p2align	4, 0x90
_runtime.mem_free:
Lfunc_begin47:
	.loc	12 155 0
	.cfi_startproc
	subq	$200, %rsp
	.cfi_def_cfa_offset 208
	leaq	208(%rsp), %rax
Ltmp379:
	movq	%rcx, 136(%rsp)
Ltmp380:
	movq	%rdi, 128(%rsp)
Ltmp381:
	movq	%rdx, 120(%rsp)
	movq	%rsi, 112(%rsp)
	movq	%rax, 104(%rsp)
Ltmp382:
	movq	128(%rsp), %rax
	movq	%rax, 192(%rsp)
	movq	120(%rsp), %rcx
	movq	%rcx, 184(%rsp)
	movq	112(%rsp), %rdx
	movq	%rdx, 176(%rsp)
	movq	136(%rsp), %rsi
Ltmp383:
	.loc	12 156 2 prologue_end
	cmpq	$0, %rax
	sete	%dil
	andb	$1, %dil
	cmpb	$0, %dil
	movq	%rsi, 96(%rsp)
	jne	LBB47_3
Ltmp384:
	cmpq	$0, 176(%rsp)
	sete	%al
	andb	$1, %al
	cmpb	$0, %al
	je	LBB47_4
Ltmp385:
LBB47_3:
	.loc	12 0 2 is_stmt 0
	xorl	%eax, %eax
Ltmp386:
	.loc	12 157 3 is_stmt 1
	addq	$200, %rsp
	retq
Ltmp387:
LBB47_4:
	.loc	12 0 3 is_stmt 0
	xorl	%eax, %eax
	movl	%eax, %ecx
	xorl	%esi, %esi
	.loc	12 159 2 is_stmt 1
	movq	176(%rsp), %rdx
	movq	184(%rsp), %rdi
	leaq	152(%rsp), %r8
	movq	%rdi, 88(%rsp)
	movq	%r8, %rdi
	movl	$24, %r8d
	movq	%rdx, 80(%rsp)
	movq	%r8, %rdx
	movq	%rcx, 72(%rsp)
	callq	_memset
	movq	96(%rsp), %rcx
	movq	80(%rsp), %rdx
	movq	104(%rsp), %rdi
	movq	32(%rdi), %r8
	movq	%rsp, %r9
	movq	%r8, 40(%r9)
	movq	24(%rdi), %r8
	movq	%r8, 32(%r9)
	movq	16(%rdi), %r8
	movq	%r8, 24(%r9)
	movq	(%rdi), %r8
	movq	8(%rdi), %r10
	movq	%r10, 16(%r9)
	movq	%r8, 8(%r9)
	movq	%rcx, 48(%r9)
	movq	$0, (%r9)
	xorl	%eax, %eax
	movl	%eax, %ecx
	leaq	152(%rsp), %rdi
	movl	$1, %eax
	movq	88(%rsp), %rsi
	movq	%rdx, 64(%rsp)
	movl	%eax, %edx
	movq	%rcx, 56(%rsp)
	movq	56(%rsp), %r8
	movq	128(%rsp), %r9
	movq	64(%rsp), %r10
	callq	*%r10
	movb	168(%rsp), %r11b
	movb	%r11b, 151(%rsp)
	.loc	12 160 2
	movb	151(%rsp), %al
	addq	$200, %rsp
	retq
Ltmp388:
Lfunc_end47:
	.cfi_endproc

	.p2align	4, 0x90
_mem.zero:
Lfunc_begin48:
	.file	17 "/Users/tarvydas/tools/Odin/core/mem/mem.odin"
	.loc	17 15 0
	.cfi_startproc
	subq	$40, %rsp
	.cfi_def_cfa_offset 48
	movq	%rdi, 16(%rsp)
Ltmp389:
	movq	%rsi, 8(%rsp)
Ltmp390:
	xorl	%esi, %esi
	movq	16(%rsp), %rax
	movq	%rax, 32(%rsp)
	movq	8(%rsp), %rcx
	movq	%rcx, 24(%rsp)
Ltmp391:
	.loc	17 16 2 prologue_end
	movq	%rax, %rdi
	movq	%rcx, %rdx
	callq	_memset
	movq	16(%rsp), %rax
	.loc	17 17 2
	addq	$40, %rsp
	retq
Ltmp392:
Lfunc_end48:
	.cfi_endproc

	.p2align	4, 0x90
_runtime.memory_equal:
Lfunc_begin49:
	.loc	12 216 0
	.cfi_startproc
	subq	$48, %rsp
	.cfi_def_cfa_offset 56
	movq	%rdi, -112(%rsp)
Ltmp393:
	movq	%rsi, -120(%rsp)
Ltmp394:
	movq	%rdx, -128(%rsp)
Ltmp395:
	movq	-112(%rsp), %rax
	movq	%rax, 40(%rsp)
	movq	-120(%rsp), %rcx
	movq	%rcx, 32(%rsp)
	movq	-128(%rsp), %rdx
	movq	%rdx, 24(%rsp)
Ltmp396:
	.loc	12 217 2 prologue_end
	cmpq	$0, %rdx
	sete	%sil
	andb	$1, %sil
	movb	$1, %dil
	cmpb	%sil, %dil
	je	LBB49_3
Ltmp397:
	.loc	12 0 2 is_stmt 0
	movq	-112(%rsp), %rax
	movq	-120(%rsp), %rcx
Ltmp398:
	.loc	12 218 15 is_stmt 1
	cmpq	%rcx, %rax
	sete	%dl
	andb	$1, %dl
	movb	$1, %sil
	cmpb	%dl, %sil
	je	LBB49_5
	jmp	LBB49_4
Ltmp399:
LBB49_3:
	movb	$1, %al
	addq	$48, %rsp
	retq
Ltmp400:
LBB49_4:
	.loc	12 219 15
	jmp	LBB49_6
Ltmp401:
LBB49_5:
	movb	$1, %al
	addq	$48, %rsp
	retq
Ltmp402:
LBB49_6:
	.loc	12 0 15 is_stmt 0
	movq	-112(%rsp), %rax
	.loc	12 222 2 is_stmt 1
	movq	%rax, 16(%rsp)
	movq	-120(%rsp), %rcx
	movq	%rcx, 8(%rsp)
	movq	-128(%rsp), %rdx
	.loc	12 223 2
	movq	%rdx, (%rsp)
Ltmp403:
	.loc	12 0 2 is_stmt 0
	xorl	%eax, %eax
	movl	%eax, %ecx
Ltmp404:
	.loc	12 226 6 is_stmt 1
	movq	(%rsp), %rdx
	shrq	$3, %rdx
	movb	$1, %sil
	testb	$1, %sil
	cmovneq	%rdx, %rcx
	movq	%rcx, -8(%rsp)
	cmpq	$0, -8(%rsp)
	setne	%sil
	andb	$1, %sil
	cmpb	$0, %sil
	je	LBB49_15
Ltmp405:
	.loc	12 227 4
	movq	$0, -16(%rsp)
	movq	$0, -24(%rsp)
Ltmp406:
LBB49_9:
	movq	-8(%rsp), %rax
	cmpq	%rax, -16(%rsp)
	jae	LBB49_14
Ltmp407:
	.loc	12 228 5
	movq	16(%rsp), %rax
	leaq	-32(%rsp), %rcx
	movq	(%rax), %rax
	movq	%rax, (%rcx)
	movq	-32(%rsp), %rax
	movq	8(%rsp), %rcx
	leaq	-40(%rsp), %rdx
	movq	(%rcx), %rcx
	movq	%rcx, (%rdx)
	cmpq	-40(%rsp), %rax
	setne	%sil
	andb	$1, %sil
	cmpb	$0, %sil
	je	LBB49_12
Ltmp408:
	.loc	12 0 5 is_stmt 0
	xorl	%eax, %eax
Ltmp409:
	.loc	12 229 6 is_stmt 1
	addq	$48, %rsp
	retq
Ltmp410:
LBB49_12:
	.loc	12 231 7
	movq	16(%rsp), %rax
	addq	$8, %rax
	movq	%rax, -48(%rsp)
	movq	-48(%rsp), %rax
	movq	%rax, 16(%rsp)
	.loc	12 232 7
	movq	8(%rsp), %rax
	addq	$8, %rax
	movq	%rax, -56(%rsp)
	movq	-56(%rsp), %rax
	movq	%rax, 8(%rsp)
Ltmp411:
	movq	-16(%rsp), %rax
	addq	$1, %rax
	movq	%rax, -16(%rsp)
	movq	-24(%rsp), %rax
	addq	$1, %rax
	movq	%rax, -24(%rsp)
	jmp	LBB49_9
Ltmp412:
LBB49_14:
	jmp	LBB49_15
Ltmp413:
LBB49_15:
	.loc	12 236 3
	movq	(%rsp), %rax
	andq	$4, %rax
	cmpq	$0, %rax
	setne	%cl
	andb	$1, %cl
	cmpb	$0, %cl
	je	LBB49_19
Ltmp414:
	.loc	12 237 4
	movq	16(%rsp), %rax
	leaq	-60(%rsp), %rcx
	movl	(%rax), %edx
	movl	%edx, (%rcx)
	movl	-60(%rsp), %edx
	movq	8(%rsp), %rax
	leaq	-64(%rsp), %rcx
	movl	(%rax), %esi
	movl	%esi, (%rcx)
	cmpl	-64(%rsp), %edx
	setne	%dil
	andb	$1, %dil
	cmpb	$0, %dil
	je	LBB49_18
Ltmp415:
	.loc	12 0 4 is_stmt 0
	xorl	%eax, %eax
Ltmp416:
	.loc	12 238 5 is_stmt 1
	addq	$48, %rsp
	retq
Ltmp417:
LBB49_18:
	.loc	12 240 6
	movq	16(%rsp), %rax
	addq	$4, %rax
	movq	%rax, -72(%rsp)
	movq	-72(%rsp), %rax
	movq	%rax, 16(%rsp)
	.loc	12 241 6
	movq	8(%rsp), %rax
	addq	$4, %rax
	movq	%rax, -80(%rsp)
	movq	-80(%rsp), %rax
	movq	%rax, 8(%rsp)
Ltmp418:
LBB49_19:
	.loc	12 244 3
	movq	(%rsp), %rax
	andq	$2, %rax
	cmpq	$0, %rax
	setne	%cl
	andb	$1, %cl
	cmpb	$0, %cl
	je	LBB49_23
Ltmp419:
	.loc	12 245 4
	movq	16(%rsp), %rax
	leaq	-82(%rsp), %rcx
	movw	(%rax), %dx
	movw	%dx, (%rcx)
	movw	-82(%rsp), %dx
	movq	8(%rsp), %rax
	leaq	-84(%rsp), %rcx
	movw	(%rax), %si
	movw	%si, (%rcx)
	cmpw	-84(%rsp), %dx
	setne	%dil
	andb	$1, %dil
	cmpb	$0, %dil
	je	LBB49_22
Ltmp420:
	.loc	12 0 4 is_stmt 0
	xorl	%eax, %eax
Ltmp421:
	.loc	12 246 5 is_stmt 1
	addq	$48, %rsp
	retq
Ltmp422:
LBB49_22:
	.loc	12 248 6
	movq	16(%rsp), %rax
	addq	$2, %rax
	movq	%rax, -96(%rsp)
	movq	-96(%rsp), %rax
	movq	%rax, 16(%rsp)
	.loc	12 249 6
	movq	8(%rsp), %rax
	addq	$2, %rax
	movq	%rax, -104(%rsp)
	movq	-104(%rsp), %rax
	movq	%rax, 8(%rsp)
Ltmp423:
LBB49_23:
	.loc	12 252 3
	movq	(%rsp), %rax
	andq	$1, %rax
	cmpq	$0, %rax
	setne	%cl
	andb	$1, %cl
	cmpb	$0, %cl
	je	LBB49_26
Ltmp424:
	movq	16(%rsp), %rax
	movb	(%rax), %cl
	movq	8(%rsp), %rax
	cmpb	(%rax), %cl
	setne	%cl
	andb	$1, %cl
	cmpb	$0, %cl
	je	LBB49_26
Ltmp425:
	.loc	12 0 3 is_stmt 0
	xorl	%eax, %eax
Ltmp426:
	.loc	12 253 4 is_stmt 1
	addq	$48, %rsp
	retq
Ltmp427:
LBB49_26:
	.loc	12 255 3
	movb	$1, %al
	addq	$48, %rsp
	retq
Ltmp428:
Lfunc_end49:
	.cfi_endproc

	.p2align	4, 0x90
_runtime.default_logger_proc:
Lfunc_begin50:
	.loc	1 590 0
	.cfi_startproc
	movq	%rsi, -48(%rsp)
Ltmp429:
	movq	%rdi, -56(%rsp)
Ltmp430:
	movw	%r8w, -58(%rsp)
Ltmp431:
	movq	%rcx, -72(%rsp)
	movq	%rdx, -80(%rsp)
Ltmp432:
	movq	-56(%rsp), %rax
	movq	%rax, -8(%rsp)
	movq	-48(%rsp), %rcx
	movq	%rcx, -16(%rsp)
	movq	-72(%rsp), %rdx
	movq	%rdx, -24(%rsp)
	movq	-80(%rsp), %rsi
	movq	%rsi, -32(%rsp)
	movw	-58(%rsp), %di
	movw	%di, -34(%rsp)
Ltmp433:
	.loc	1 592 1 prologue_end
	retq
Ltmp434:
Lfunc_end50:
	.cfi_endproc

	.p2align	4, 0x90
_mem.byte_slice:
Lfunc_begin51:
	.loc	17 127 0
	.cfi_startproc
	subq	$88, %rsp
	.cfi_def_cfa_offset 96
	movq	%rdi, 40(%rsp)
Ltmp435:
	movq	%rsi, 32(%rsp)
Ltmp436:
	movq	40(%rsp), %rax
	movq	%rax, 80(%rsp)
	movq	32(%rsp), %rcx
	movq	%rcx, 72(%rsp)
	xorl	%edx, %edx
Ltmp437:
	.loc	17 128 2 prologue_end
	testq	%rcx, %rcx
	movl	%edx, %esi
	movq	%rsi, %rdi
	cmovnsq	%rcx, %rdi
	movq	%rax, 64(%rsp)
	movq	64(%rsp), %r8
	leaq	L_csbs$8d(%rip), %r9
	movl	$44, %r10d
	movl	$128, %edx
	movl	$22, %r11d
	movq	%rdi, 24(%rsp)
	movq	%r9, %rdi
	movq	%rsi, 16(%rsp)
	movq	%r10, %rsi
	movl	%r11d, %ecx
	movq	16(%rsp), %r9
	movq	%r8, 8(%rsp)
	movq	%r9, %r8
	movq	24(%rsp), %r9
	callq	_runtime.multi_pointer_slice_expr_error
	movq	8(%rsp), %rax
	movq	%rax, 48(%rsp)
	movq	24(%rsp), %rax
	movq	%rax, 56(%rsp)
	movq	48(%rsp), %rax
	movq	56(%rsp), %rdx
	addq	$88, %rsp
	retq
Ltmp438:
Lfunc_end51:
	.cfi_endproc

	.p2align	4, 0x90
_runtime.default_context:
Lfunc_begin52:
	.loc	1 599 0
	.cfi_startproc
	subq	$120, %rsp
	.cfi_def_cfa_offset 128
	movq	%rdi, %rax
	movq	%rdi, 16(%rsp)
	movq	%rax, 8(%rsp)
	xorl	%esi, %esi
Ltmp439:
	.loc	1 600 2 prologue_end
	leaq	24(%rsp), %rax
Ltmp440:
	movq	%rax, %rcx
	movq	%rcx, %rdi
	movl	$96, %edx
	movq	%rax, (%rsp)
Ltmp441:
	callq	_memset
	movq	(%rsp), %rdi
	.loc	1 601 2
	callq	"_runtime.__init_context-822"
	movq	16(%rsp), %rax
	.loc	1 602 2
	leaq	24(%rsp), %rcx
	movq	%rax, %rdi
	movq	%rcx, %rsi
	movl	$96, %edx
	callq	_memcpy
	movq	8(%rsp), %rax
	addq	$120, %rsp
	retq
Ltmp442:
Lfunc_end52:
	.cfi_endproc

	.p2align	4, 0x90
"_runtime.__init_context-822":
Lfunc_begin53:
	.loc	1 615 0
	.cfi_startproc
	subq	$40, %rsp
	.cfi_def_cfa_offset 48
	movq	%rdi, 24(%rsp)
Ltmp443:
	movq	24(%rsp), %rax
	movq	%rax, 32(%rsp)
Ltmp444:
	.loc	1 616 2 prologue_end
	cmpq	$0, %rax
	sete	%cl
	andb	$1, %cl
	cmpb	$0, %cl
	je	LBB53_3
Ltmp445:
	.loc	1 617 3
	addq	$40, %rsp
	retq
Ltmp446:
LBB53_3:
	.loc	1 0 3 is_stmt 0
	leaq	_runtime.default_logger_proc(%rip), %rax
	leaq	_runtime.default_assertion_failure_proc(%rip), %rcx
	.loc	1 621 24 is_stmt 1
	movq	32(%rsp), %rdx
	leaq	_os.heap_allocator_proc(%rip), %rsi
	movq	%rsi, (%rdx)
	.loc	1 622 19
	movq	32(%rsp), %rdx
	movq	$0, 8(%rdx)
	.loc	1 624 29
	movq	32(%rsp), %rdx
	leaq	_runtime.default_temp_allocator_proc(%rip), %rsi
	movq	%rsi, 16(%rdx)
	.loc	1 626 25
	movq	32(%rsp), %rdx
	movq	_runtime.global_default_temp_allocator_data@TLVP(%rip), %rdi
	movq	%rax, 16(%rsp)
	movq	%rcx, 8(%rsp)
	movq	%rdx, (%rsp)
	callq	*(%rdi)
	movq	(%rsp), %rcx
	movq	%rax, 24(%rcx)
	.loc	1 630 28
	movq	32(%rsp), %rax
	movq	8(%rsp), %rdx
	movq	%rdx, 32(%rax)
	.loc	1 633 21
	movq	32(%rsp), %rax
	movq	16(%rsp), %rsi
	movq	%rsi, 40(%rax)
	.loc	1 634 16
	movq	32(%rsp), %rax
	movq	$0, 48(%rax)
Ltmp447:
	.loc	1 635 1
	addq	$40, %rsp
	retq
Ltmp448:
Lfunc_end53:
	.cfi_endproc

	.p2align	4, 0x90
_runtime.default_assertion_failure_proc:
Lfunc_begin54:
	.loc	1 637 0
	.cfi_startproc
	subq	$136, %rsp
	.cfi_def_cfa_offset 144
	leaq	144(%rsp), %rax
Ltmp449:
	movq	%rcx, 96(%rsp)
	movq	%rdx, 88(%rsp)
Ltmp450:
	movq	%rsi, 80(%rsp)
	movq	%rdi, 72(%rsp)
Ltmp451:
	movq	%rax, 64(%rsp)
Ltmp452:
	movq	72(%rsp), %rax
	movq	%rax, 120(%rsp)
	movq	80(%rsp), %rcx
	movq	%rcx, 128(%rsp)
	movq	96(%rsp), %rdx
	movq	%rdx, 112(%rsp)
	movq	88(%rsp), %rsi
	movq	%rsi, 104(%rsp)
	movq	64(%rsp), %rdi
Ltmp453:
	.loc	1 641 3 prologue_end
	movq	32(%rdi), %r8
	movq	%rsp, %r9
	movq	%r8, 32(%r9)
	movq	24(%rdi), %r8
	movq	%r8, 24(%r9)
	movq	16(%rdi), %r8
	movq	%r8, 16(%r9)
	movq	(%rdi), %r8
	movq	8(%rdi), %r10
	movq	%r10, 8(%r9)
	movq	%r8, (%r9)
	callq	_runtime.print_caller_location
	.loc	1 642 3
	leaq	L_csbs$8e(%rip), %rdi
	movl	$1, %esi
	callq	_runtime.print_string
	movq	72(%rsp), %rdi
	movq	80(%rsp), %rsi
	movq	%rax, 56(%rsp)
	.loc	1 643 3
	callq	_runtime.print_string
	movq	96(%rsp), %rcx
	.loc	1 644 3
	cmpq	$0, %rcx
	setg	%r11b
	andb	$1, %r11b
	cmpb	$0, %r11b
	je	LBB54_3
Ltmp454:
	.loc	1 645 4
	leaq	L_csbs$8f(%rip), %rdi
	movl	$2, %esi
	callq	_runtime.print_string
	movq	88(%rsp), %rdi
	movq	96(%rsp), %rsi
	movq	%rax, 48(%rsp)
	.loc	1 646 4
	callq	_runtime.print_string
Ltmp455:
LBB54_3:
	.loc	1 0 4 is_stmt 0
	movl	$10, %edi
	.loc	1 648 3 is_stmt 1
	callq	_runtime.print_byte
	.loc	1 650 2
	ud2
Ltmp456:
Lfunc_end54:
	.cfi_endproc

	.p2align	4, 0x90
_runtime.assert:
Lfunc_begin55:
	.loc	4 800 0
	.cfi_startproc
	subq	$120, %rsp
	.cfi_def_cfa_offset 128
	leaq	128(%rsp), %rax
Ltmp457:
	movq	%rcx, 88(%rsp)
Ltmp458:
	movb	%dil, 87(%rsp)
	movq	%rdx, 72(%rsp)
	movq	%rsi, 64(%rsp)
Ltmp459:
	movq	%rax, 56(%rsp)
Ltmp460:
	movb	87(%rsp), %al
	andb	$1, %al
	movb	%al, 119(%rsp)
Ltmp461:
	movq	72(%rsp), %rcx
	movq	%rcx, 104(%rsp)
	movq	64(%rsp), %rdx
	movq	%rdx, 96(%rsp)
	movq	88(%rsp), %rsi
Ltmp462:
	.loc	4 801 2 prologue_end
	cmpb	$0, %al
	movq	%rsi, 48(%rsp)
	jne	LBB55_3
Ltmp463:
	.loc	4 0 2 is_stmt 0
	movq	48(%rsp), %rax
Ltmp464:
	movq	56(%rsp), %rcx
Ltmp465:
	.loc	4 814 3 is_stmt 1
	movq	32(%rcx), %rdx
	movq	%rsp, %rsi
	movq	%rdx, 32(%rsi)
	movq	24(%rcx), %rdx
	movq	%rdx, 24(%rsi)
	movq	16(%rcx), %rdx
	movq	%rdx, 16(%rsi)
	movq	(%rcx), %rdx
	movq	8(%rcx), %rdi
	movq	%rdi, 8(%rsi)
	movq	%rdx, (%rsi)
	movq	64(%rsp), %rdi
	movq	72(%rsp), %rsi
	movq	%rax, %rdx
	callq	"_runtime.assert.internal-0"
Ltmp466:
LBB55_3:
	.loc	4 816 1
	addq	$120, %rsp
	retq
Ltmp467:
Lfunc_end55:
	.cfi_endproc

	.p2align	4, 0x90
_os.heap_allocator_proc:
Lfunc_begin56:
	.file	18 "/Users/tarvydas/tools/Odin/core/os/os.odin"
	.loc	18 171 0
	.cfi_startproc
	subq	$232, %rsp
	.cfi_def_cfa_offset 240
	movq	%rdi, %rax
	movq	288(%rsp), %r10
	movq	240(%rsp), %r11
Ltmp468:
	movq	%r9, 80(%rsp)
Ltmp469:
	movq	%r8, 72(%rsp)
Ltmp470:
	movq	%rcx, 64(%rsp)
Ltmp471:
	movq	%rsi, 56(%rsp)
Ltmp472:
	movq	%rdi, 48(%rsp)
	movb	%dl, 47(%rsp)
Ltmp473:
	movq	%rax, 32(%rsp)
	movq	%r10, 24(%rsp)
Ltmp474:
	movq	%r11, 16(%rsp)
Ltmp475:
	movq	56(%rsp), %rax
	movq	%rax, 224(%rsp)
	movb	47(%rsp), %cl
	movb	%cl, 223(%rsp)
	movq	64(%rsp), %rdx
	movq	%rdx, 208(%rsp)
	movq	72(%rsp), %rsi
	movq	%rsi, 200(%rsp)
	movq	80(%rsp), %rdi
	movq	%rdi, 192(%rsp)
	movq	16(%rsp), %r8
	movq	%r8, 184(%rsp)
	movq	24(%rsp), %r9
Ltmp476:
	.loc	18 228 2 prologue_end
	movzbl	%cl, %r10d
	movl	%r10d, %r11d
	subb	$6, %cl
	movq	%r9, 8(%rsp)
	movq	%r11, (%rsp)
	ja	LBB56_12
Ltmp477:
	.loc	18 0 2 is_stmt 0
	leaq	LJTI56_0(%rip), %rax
	movq	(%rsp), %rcx
	movslq	(%rax,%rcx,4), %rdx
	addq	%rax, %rdx
	jmpq	*%rdx
Ltmp478:
LBB56_2:
	movb	47(%rsp), %al
Ltmp479:
	.loc	18 230 3 is_stmt 1
	testb	%al, %al
	sete	%cl
	xorps	%xmm0, %xmm0
	movaps	%xmm0, 160(%rsp)
	movq	$0, 176(%rsp)
	movzbl	%cl, %r8d
	xorl	%edx, %edx
	movl	%edx, %ecx
	leaq	160(%rsp), %rdi
	movq	64(%rsp), %rsi
	movq	72(%rsp), %rdx
	movq	8(%rsp), %r9
	callq	"_os.heap_allocator_proc.aligned_alloc-0"
	movb	176(%rsp), %al
	movq	160(%rsp), %rcx
	movq	168(%rsp), %rdx
	movq	48(%rsp), %rsi
	movq	%rdx, 8(%rsi)
	movq	%rcx, (%rsi)
	movb	%al, 16(%rsi)
	movq	32(%rsp), %rax
	addq	$232, %rsp
	retq
Ltmp480:
LBB56_3:
	.loc	18 0 3 is_stmt 0
	movq	8(%rsp), %rax
	movq	80(%rsp), %rdi
	.loc	18 233 3 is_stmt 1
	movq	%rax, %rsi
	callq	"_os.heap_allocator_proc.aligned_free-1"
	jmp	LBB56_12
Ltmp481:
LBB56_4:
	.loc	18 0 3 is_stmt 0
	movq	48(%rsp), %rax
	.loc	18 236 3 is_stmt 1
	movq	$0, 8(%rax)
	movq	$0, (%rax)
	movb	$4, 16(%rax)
	movq	32(%rsp), %rax
	addq	$232, %rsp
	retq
Ltmp482:
LBB56_5:
	.loc	18 0 3 is_stmt 0
	movq	80(%rsp), %rax
	.loc	18 239 3 is_stmt 1
	cmpq	$0, %rax
	sete	%cl
	andb	$1, %cl
	cmpb	$0, %cl
	je	LBB56_7
Ltmp483:
	.loc	18 240 4
	xorps	%xmm0, %xmm0
	movaps	%xmm0, 128(%rsp)
	movq	$0, 144(%rsp)
	xorl	%eax, %eax
	movl	%eax, %ecx
	leaq	128(%rsp), %rdi
	movl	$1, %r8d
	movq	64(%rsp), %rsi
	movq	72(%rsp), %rdx
	movq	8(%rsp), %r9
	callq	"_os.heap_allocator_proc.aligned_alloc-0"
	movb	144(%rsp), %r10b
	movq	128(%rsp), %rcx
	movq	136(%rsp), %rdx
	movq	48(%rsp), %rsi
	movq	%rdx, 8(%rsi)
	movq	%rcx, (%rsi)
	movb	%r10b, 16(%rsi)
	movq	32(%rsp), %rax
	addq	$232, %rsp
	retq
Ltmp484:
LBB56_7:
	.loc	18 242 3
	xorps	%xmm0, %xmm0
	movaps	%xmm0, 96(%rsp)
	movq	$0, 112(%rsp)
	leaq	96(%rsp), %rdi
	movq	80(%rsp), %rsi
	movq	16(%rsp), %rdx
	movq	64(%rsp), %rcx
	movq	72(%rsp), %r8
	movq	8(%rsp), %r9
	callq	"_os.heap_allocator_proc.aligned_resize-2"
	movb	112(%rsp), %al
	movq	96(%rsp), %rcx
	movq	104(%rsp), %rdx
	movq	48(%rsp), %rsi
	movq	%rdx, 8(%rsi)
	movq	%rcx, (%rsi)
	movb	%al, 16(%rsi)
	movq	32(%rsp), %rax
	addq	$232, %rsp
	retq
Ltmp485:
LBB56_8:
	.loc	18 0 3 is_stmt 0
	movq	80(%rsp), %rax
	.loc	18 245 3 is_stmt 1
	movq	%rax, 88(%rsp)
	.loc	18 246 3
	cmpq	$0, 88(%rsp)
	setne	%cl
	andb	$1, %cl
	cmpb	$0, %cl
	je	LBB56_10
Ltmp486:
	.loc	18 247 9
	movq	88(%rsp), %rax
	movb	$91, (%rax)
Ltmp487:
LBB56_10:
	.loc	18 0 9 is_stmt 0
	movq	48(%rsp), %rax
Ltmp488:
	.loc	18 249 3 is_stmt 1
	movq	$0, 8(%rax)
	movq	$0, (%rax)
	movb	$0, 16(%rax)
	movq	32(%rsp), %rax
	addq	$232, %rsp
	retq
Ltmp489:
LBB56_11:
	.loc	18 0 3 is_stmt 0
	movq	48(%rsp), %rax
	.loc	18 252 3 is_stmt 1
	movq	$0, 8(%rax)
	movq	$0, (%rax)
	movb	$4, 16(%rax)
	movq	32(%rsp), %rax
	addq	$232, %rsp
	retq
Ltmp490:
LBB56_12:
	.loc	18 0 3 is_stmt 0
	movq	48(%rsp), %rax
	.loc	18 255 2 is_stmt 1
	movq	$0, 8(%rax)
	movq	$0, (%rax)
	movb	$0, 16(%rax)
	movq	32(%rsp), %rax
	addq	$232, %rsp
	retq
Ltmp491:
Lfunc_end56:
	.cfi_endproc
	.p2align	2, 0x90
	.data_region jt32
.set L56_0_set_2, LBB56_2-LJTI56_0
.set L56_0_set_3, LBB56_3-LJTI56_0
.set L56_0_set_4, LBB56_4-LJTI56_0
.set L56_0_set_5, LBB56_5-LJTI56_0
.set L56_0_set_8, LBB56_8-LJTI56_0
.set L56_0_set_11, LBB56_11-LJTI56_0
LJTI56_0:
	.long	L56_0_set_2
	.long	L56_0_set_3
	.long	L56_0_set_4
	.long	L56_0_set_5
	.long	L56_0_set_8
	.long	L56_0_set_11
	.long	L56_0_set_2
	.end_data_region

	.p2align	4, 0x90
_os.heap_allocator:
Lfunc_begin57:
	.loc	18 258 0
	.cfi_startproc
	.loc	18 259 2 prologue_end
	leaq	_os.heap_allocator_proc(%rip), %rax
	movq	%rax, -16(%rsp)
	movq	$0, -8(%rsp)
	movq	-16(%rsp), %rax
	movq	-8(%rsp), %rdx
	retq
Ltmp492:
Lfunc_end57:
	.cfi_endproc

	.p2align	4, 0x90
_strings.clone:
Lfunc_begin58:
	.file	19 "/Users/tarvydas/tools/Odin/core/strings/strings.odin"
	.loc	19 23 0
	.cfi_startproc
	subq	$264, %rsp
	.cfi_def_cfa_offset 272
	movq	%rdi, %rax
	leaq	272(%rsp), %r10
Ltmp493:
	movq	%r9, 136(%rsp)
Ltmp494:
	movq	%rdi, 128(%rsp)
	movq	%r8, 120(%rsp)
	movq	%rcx, 112(%rsp)
	movq	%rdx, 104(%rsp)
	movq	%rsi, 96(%rsp)
Ltmp495:
	movq	%rax, 88(%rsp)
	movq	%r10, 80(%rsp)
Ltmp496:
	movq	96(%rsp), %rax
	movq	%rax, 248(%rsp)
	movq	104(%rsp), %rcx
	movq	%rcx, 256(%rsp)
	movq	120(%rsp), %rdx
	movq	%rdx, 240(%rsp)
	movq	112(%rsp), %rsi
	movq	%rsi, 232(%rsp)
Ltmp497:
	xorps	%xmm0, %xmm0
	movaps	%xmm0, 208(%rsp)
	movb	$0, 207(%rsp)
Ltmp498:
	.loc	19 24 2 prologue_end
	movq	232(%rsp), %rdx
	movq	240(%rsp), %rcx
	movaps	%xmm0, 176(%rsp)
	movq	$0, 192(%rsp)
	movq	80(%rsp), %rdi
	movq	32(%rdi), %r8
	movq	%rsp, %r9
	movq	%r8, 32(%r9)
	movq	24(%rdi), %r8
	movq	%r8, 24(%r9)
	movq	16(%rdi), %r8
	movq	%r8, 16(%r9)
	movq	(%rdi), %r8
	movq	8(%rdi), %r10
	movq	%r10, 8(%r9)
	movq	%r8, (%r9)
	leaq	176(%rsp), %rdi
	movq	104(%rsp), %rsi
	movq	136(%rsp), %r8
	callq	"_runtime.make_slice-11498"
	movq	176(%rsp), %rax
	movq	184(%rsp), %rcx
	movb	192(%rsp), %r11b
	cmpb	$0, %r11b
	movq	%rax, 72(%rsp)
	movq	%rcx, 64(%rsp)
	movb	%r11b, 63(%rsp)
	je	LBB58_3
Ltmp499:
	.loc	19 0 2 is_stmt 0
	movb	63(%rsp), %al
	.loc	19 24 2
	movb	%al, 207(%rsp)
	movq	208(%rsp), %rcx
	movq	216(%rsp), %rdx
	movb	207(%rsp), %sil
	movq	%rdx, 216(%rsp)
	movq	%rcx, 208(%rsp)
	movb	%sil, 207(%rsp)
	movq	128(%rsp), %rdi
	movq	%rdx, 8(%rdi)
	movq	%rcx, (%rdi)
	movb	%sil, 16(%rdi)
	movq	88(%rsp), %rax
	addq	$264, %rsp
	retq
Ltmp500:
LBB58_3:
	.loc	19 0 2
	movq	72(%rsp), %rax
	.loc	19 24 2
	movq	%rax, 160(%rsp)
	movq	64(%rsp), %rcx
	movq	%rcx, 168(%rsp)
	.loc	19 25 2 is_stmt 1
	movq	160(%rsp), %rdi
	movq	168(%rsp), %rsi
	movq	96(%rsp), %rdx
	movq	104(%rsp), %rcx
	callq	"_runtime.copy_from_string-12399"
	.loc	19 26 2
	movq	168(%rsp), %r9
	leaq	L_csbs$90(%rip), %rdi
	movl	$52, %esi
	movl	$26, %edx
	movl	$17, %ecx
	movq	104(%rsp), %r8
	movq	%rax, 48(%rsp)
	callq	_runtime.slice_expr_error_hi
	movq	160(%rsp), %rax
	movq	%rax, 144(%rsp)
	movq	104(%rsp), %rax
	movq	%rax, 152(%rsp)
	movq	144(%rsp), %rsi
	movq	152(%rsp), %rdi
	movq	%rdi, 216(%rsp)
	movq	%rsi, 208(%rsp)
	movb	$0, 207(%rsp)
	movq	128(%rsp), %r8
	movq	%rdi, 8(%r8)
	movq	%rsi, (%r8)
	movb	$0, 16(%r8)
	movq	88(%rsp), %rax
	addq	$264, %rsp
	retq
Ltmp501:
Lfunc_end58:
	.cfi_endproc

	.globl	___truncsfhf2
	.p2align	4, 0x90
___truncsfhf2:
Lfunc_begin59:
	.loc	12 728 0
	.cfi_startproc
	subq	$72, %rsp
	.cfi_def_cfa_offset 80
	movss	%xmm0, 20(%rsp)
Ltmp502:
	xorl	%eax, %eax
	movss	20(%rsp), %xmm0
	movss	%xmm0, 68(%rsp)
Ltmp503:
	.loc	12 729 2 prologue_end
	leaq	64(%rsp), %rcx
Ltmp504:
	movq	%rcx, %rdi
	movl	%eax, %esi
	movl	$4, %edx
	movl	%eax, 16(%rsp)
	callq	_memset
Ltmp505:
	.loc	12 730 2
	movl	$0, 60(%rsp)
	movl	$0, 56(%rsp)
	movl	$0, 52(%rsp)
	movl	$0, 48(%rsp)
	movss	20(%rsp), %xmm0
	.loc	12 732 6
	movss	%xmm0, 64(%rsp)
	.loc	12 733 4
	movl	64(%rsp), %eax
	movl	%eax, 60(%rsp)
	.loc	12 735 4
	movl	60(%rsp), %eax
	sarl	$16, %eax
	movb	$1, %r8b
	testb	$1, %r8b
	movl	16(%rsp), %esi
	cmovnel	%eax, %esi
	andl	$32768, %esi
	movl	%esi, 56(%rsp)
	.loc	12 736 4
	movl	60(%rsp), %eax
	sarl	$23, %eax
	testb	$1, %r8b
	movl	16(%rsp), %esi
	cmovnel	%eax, %esi
	andl	$255, %esi
	subl	$112, %esi
	movl	%esi, 52(%rsp)
	.loc	12 737 4
	movl	60(%rsp), %eax
	andl	$8388607, %eax
	movl	%eax, 48(%rsp)
	.loc	12 740 2
	cmpl	$0, 52(%rsp)
	setle	%r8b
	andb	$1, %r8b
	cmpb	$0, %r8b
	je	LBB59_7
Ltmp506:
	.loc	12 741 3
	cmpl	$-10, 52(%rsp)
	setl	%al
	andb	$1, %al
	cmpb	$0, %al
	je	LBB59_4
Ltmp507:
	.loc	12 742 4
	movl	56(%rsp), %eax
	addq	$72, %rsp
	retq
Ltmp508:
LBB59_4:
	.loc	12 0 4 is_stmt 0
	xorl	%eax, %eax
	.loc	12 744 5 is_stmt 1
	movl	48(%rsp), %ecx
	orl	$8388608, %ecx
	movl	$1, %edx
	subl	52(%rsp), %edx
	movl	%ecx, 12(%rsp)
	movl	%edx, %ecx
	movl	12(%rsp), %esi
	sarl	%cl, %esi
	cmpl	$32, %edx
	cmovbl	%esi, %eax
	movl	%eax, 48(%rsp)
	.loc	12 746 3
	movl	48(%rsp), %eax
	andl	$4096, %eax
	cmpl	$0, %eax
	setne	%cl
	andb	$1, %cl
	cmpb	$0, %cl
	je	LBB59_6
Ltmp509:
	.loc	12 747 6
	movl	48(%rsp), %eax
	addl	$8192, %eax
	movl	%eax, 48(%rsp)
Ltmp510:
LBB59_6:
	.loc	12 0 6 is_stmt 0
	xorl	%eax, %eax
	.loc	12 750 3 is_stmt 1
	movl	56(%rsp), %ecx
	movl	48(%rsp), %edx
	sarl	$13, %edx
	movb	$1, %sil
	testb	$1, %sil
	cmovnel	%edx, %eax
	orl	%eax, %ecx
	movw	%cx, %ax
	addq	$72, %rsp
	retq
Ltmp511:
LBB59_7:
	.loc	12 751 9
	cmpl	$143, 52(%rsp)
	sete	%al
	andb	$1, %al
	cmpb	$0, %al
	je	LBB59_11
Ltmp512:
	.loc	12 752 3
	cmpl	$0, 48(%rsp)
	sete	%al
	andb	$1, %al
	cmpb	$0, %al
	je	LBB59_10
Ltmp513:
	.loc	12 753 4
	movl	56(%rsp), %eax
	orl	$31744, %eax
	addq	$72, %rsp
	retq
Ltmp514:
LBB59_10:
	.loc	12 756 6
	movl	48(%rsp), %eax
	sarl	$13, %eax
	movl	%eax, 48(%rsp)
	.loc	12 757 4
	movl	56(%rsp), %eax
	movl	48(%rsp), %ecx
	orl	%ecx, %eax
	orl	$31744, %eax
	testl	%ecx, %ecx
	sete	%dl
	andb	$1, %dl
	movzbl	%dl, %ecx
	orl	%ecx, %eax
	addq	$72, %rsp
	retq
Ltmp515:
LBB59_11:
	.loc	12 760 3
	movl	48(%rsp), %eax
	andl	$4096, %eax
	cmpl	$0, %eax
	setne	%cl
	andb	$1, %cl
	cmpb	$0, %cl
	je	LBB59_15
Ltmp516:
	.loc	12 761 6
	movl	48(%rsp), %eax
	addl	$8192, %eax
	movl	%eax, 48(%rsp)
	.loc	12 762 4
	movl	48(%rsp), %eax
	andl	$8388608, %eax
	cmpl	$0, %eax
	setne	%cl
	andb	$1, %cl
	cmpb	$0, %cl
	je	LBB59_14
Ltmp517:
	.loc	12 763 7
	movl	$0, 48(%rsp)
	.loc	12 764 7
	movl	52(%rsp), %eax
	addl	$1, %eax
	movl	%eax, 52(%rsp)
Ltmp518:
LBB59_14:
	jmp	LBB59_15
Ltmp519:
LBB59_15:
	.loc	12 768 3
	cmpl	$30, 52(%rsp)
	setg	%al
	andb	$1, %al
	cmpb	$0, %al
	je	LBB59_22
Ltmp520:
	.loc	12 769 4
	movabsq	$1000000000000, %rax
	movq	%rax, 40(%rsp)
Ltmp521:
	.loc	12 770 8
	movq	$0, 32(%rsp)
Ltmp522:
LBB59_18:
	.loc	12 770 16 is_stmt 0
	cmpq	$10, 32(%rsp)
	setl	%al
	andb	$1, %al
	cmpb	$0, %al
	je	LBB59_21
Ltmp523:
	.loc	12 772 5 is_stmt 1
	movq	40(%rsp), %rax
	movq	%rax, 24(%rsp)
	.loc	12 773 7
	movq	24(%rsp), %rax
	imulq	24(%rsp), %rax
	movq	%rax, 24(%rsp)
	.loc	12 774 5
	movq	24(%rsp), %rax
	movq	%rax, 40(%rsp)
Ltmp524:
	.loc	12 770 26
	movq	32(%rsp), %rax
	addq	$1, %rax
	movq	%rax, 32(%rsp)
	jmp	LBB59_18
Ltmp525:
LBB59_21:
	.loc	12 777 4
	movl	56(%rsp), %eax
	orl	$31744, %eax
	addq	$72, %rsp
	retq
Ltmp526:
LBB59_22:
	.loc	12 0 4 is_stmt 0
	xorl	%eax, %eax
	.loc	12 780 3 is_stmt 1
	movl	56(%rsp), %ecx
	movl	52(%rsp), %edx
	shll	$10, %edx
	movb	$1, %sil
	testb	$1, %sil
	movl	%eax, %edi
	cmovnel	%edx, %edi
	orl	%edi, %ecx
	movl	48(%rsp), %edx
	sarl	$13, %edx
	testb	$1, %sil
	cmovnel	%edx, %eax
	orl	%eax, %ecx
	movw	%cx, %ax
	addq	$72, %rsp
	retq
Ltmp527:
Lfunc_end59:
	.cfi_endproc

	.globl	___truncdfhf2
	.p2align	4, 0x90
___truncdfhf2:
Lfunc_begin60:
	.loc	12 786 0
	.cfi_startproc
	subq	$24, %rsp
	.cfi_def_cfa_offset 32
	movsd	%xmm0, 8(%rsp)
Ltmp528:
	movsd	8(%rsp), %xmm0
	movsd	%xmm0, 16(%rsp)
Ltmp529:
	.loc	12 787 2 prologue_end
	cvtsd2ss	%xmm0, %xmm0
	callq	___truncsfhf2
	addq	$24, %rsp
	retq
Ltmp530:
Lfunc_end60:
	.cfi_endproc

	.globl	___gnu_h2f_ieee
	.p2align	4, 0x90
___gnu_h2f_ieee:
Lfunc_begin61:
	.loc	12 791 0
	.cfi_startproc
	subq	$56, %rsp
	.cfi_def_cfa_offset 64
Ltmp531:
	movw	%di, 30(%rsp)
Ltmp532:
	xorl	%eax, %eax
	movw	30(%rsp), %cx
	movw	%cx, 54(%rsp)
Ltmp533:
	.loc	12 794 2 prologue_end
	leaq	48(%rsp), %rdx
Ltmp534:
	movq	%rdx, %rdi
	movl	%eax, %esi
	movl	$4, %edx
Ltmp535:
	.loc	12 0 2 is_stmt 0
	movq	%rdx, 16(%rsp)
	movl	%eax, 12(%rsp)
	.loc	12 794 2
	callq	_memset
	.loc	12 795 2 is_stmt 1
	leaq	40(%rsp), %rdx
Ltmp536:
	movq	%rdx, %rdi
	movl	12(%rsp), %esi
	movq	16(%rsp), %rdx
Ltmp537:
	callq	_memset
	leaq	32(%rsp), %rdx
Ltmp538:
	movq	%rdx, %rdi
	movl	12(%rsp), %esi
	movq	16(%rsp), %rdx
Ltmp539:
	callq	_memset
	.loc	12 796 10
	movl	$2004877312, 40(%rsp)
	.loc	12 797 15
	movl	$1199570944, 32(%rsp)
	movw	30(%rsp), %cx
	.loc	12 799 6
	andw	$32767, %cx
	movzwl	%cx, %eax
	shll	$13, %eax
	movb	$1, %r8b
	testb	$1, %r8b
	movl	12(%rsp), %esi
	cmovnel	%eax, %esi
	movl	%esi, 48(%rsp)
	.loc	12 800 6
	movss	40(%rsp), %xmm0
	mulss	48(%rsp), %xmm0
	movss	%xmm0, 48(%rsp)
	.loc	12 801 2
	movss	48(%rsp), %xmm0
	ucomiss	32(%rsp), %xmm0
	setae	%r8b
	andb	$1, %r8b
	cmpb	$0, %r8b
	je	LBB61_3
Ltmp540:
	.loc	12 802 7
	movl	48(%rsp), %eax
	orl	$2139095040, %eax
	movl	%eax, 48(%rsp)
Ltmp541:
LBB61_3:
	.loc	12 0 7 is_stmt 0
	xorl	%eax, %eax
	movw	30(%rsp), %cx
	.loc	12 804 6 is_stmt 1
	andw	$-32768, %cx
	movzwl	%cx, %edx
	shll	$16, %edx
	movb	$1, %sil
	testb	$1, %sil
	cmovnel	%edx, %eax
	orl	48(%rsp), %eax
	movl	%eax, 48(%rsp)
	.loc	12 805 2
	movss	48(%rsp), %xmm0
	addq	$56, %rsp
	retq
Ltmp542:
Lfunc_end61:
	.cfi_endproc

	.globl	___gnu_f2h_ieee
	.p2align	4, 0x90
___gnu_f2h_ieee:
Lfunc_begin62:
	.loc	12 810 0
	.cfi_startproc
	pushq	%rax
	.cfi_def_cfa_offset 16
	movss	%xmm0, (%rsp)
Ltmp543:
	movss	(%rsp), %xmm0
	movss	%xmm0, 4(%rsp)
Ltmp544:
	.loc	12 811 2 prologue_end
	callq	___truncsfhf2
	popq	%rcx
	retq
Ltmp545:
Lfunc_end62:
	.cfi_endproc

	.globl	___extendhfsf2
	.p2align	4, 0x90
___extendhfsf2:
Lfunc_begin63:
	.loc	12 815 0
	.cfi_startproc
	pushq	%rax
	.cfi_def_cfa_offset 16
Ltmp546:
	movw	%di, 4(%rsp)
Ltmp547:
	movw	4(%rsp), %ax
	movw	%ax, 6(%rsp)
Ltmp548:
	.loc	12 816 2 prologue_end
	movzwl	%ax, %edi
	callq	___gnu_h2f_ieee
	popq	%rax
	retq
Ltmp549:
Lfunc_end63:
	.cfi_endproc

	.section	__TEXT,__literal16,16byte_literals
	.p2align	4
LCPI64_0:
	.long	54
	.long	0
	.long	0
	.long	0
	.section	__TEXT,__text,regular,pure_instructions
	.globl	___floattidf
	.p2align	4, 0x90
___floattidf:
Lfunc_begin64:
	.loc	12 822 0
	.cfi_startproc
	pushq	%rbp
	.cfi_def_cfa_offset 16
	pushq	%r15
	.cfi_def_cfa_offset 24
	pushq	%r14
	.cfi_def_cfa_offset 32
	pushq	%r13
	.cfi_def_cfa_offset 40
	pushq	%r12
	.cfi_def_cfa_offset 48
	pushq	%rbx
	.cfi_def_cfa_offset 56
	.cfi_offset %rbx, -56
	.cfi_offset %r12, -48
	.cfi_offset %r13, -40
	.cfi_offset %r14, -32
	.cfi_offset %r15, -24
	.cfi_offset %rbp, -16
	movq	%rsi, -88(%rsp)
	movq	%rdi, -96(%rsp)
Ltmp550:
	movq	-96(%rsp), %rax
	movq	%rax, -16(%rsp)
	movq	-88(%rsp), %rcx
	movq	%rcx, -8(%rsp)
Ltmp551:
	.loc	12 827 2 prologue_end
	orq	%rcx, %rax
	sete	%dl
	andb	$1, %dl
	cmpb	$0, %dl
	je	LBB64_3
Ltmp552:
	.loc	12 828 3
	xorps	%xmm0, %xmm0
	popq	%rbx
	popq	%r12
	popq	%r13
	popq	%r14
	popq	%r15
	popq	%rbp
	retq
Ltmp553:
LBB64_3:
	.loc	12 0 3 is_stmt 0
	movq	-96(%rsp), %rax
	.loc	12 830 2 is_stmt 1
	movq	%rax, -32(%rsp)
	movq	-88(%rsp), %rcx
	movq	%rcx, -24(%rsp)
	.loc	12 832 2
	movq	-24(%rsp), %rdx
	sarq	$63, %rdx
	movq	%rdx, -40(%rsp)
	movq	%rdx, -48(%rsp)
	.loc	12 833 4
	movq	-32(%rsp), %rdx
	movq	-24(%rsp), %rsi
	movq	-48(%rsp), %rdi
	movq	-40(%rsp), %r8
	xorq	%r8, %rsi
	xorq	%rdi, %rdx
	subq	%rdi, %rdx
	sbbq	%r8, %rsi
	movq	%rdx, -32(%rsp)
	movq	%rsi, -24(%rsp)
	.loc	12 834 2
	movq	-24(%rsp), %rdx
	bsrq	-32(%rsp), %rsi
	movl	$127, %edi
	cmoveq	%rdi, %rsi
	xorq	$63, %rsi
	addq	$64, %rsi
	bsrq	%rdx, %rdi
	xorq	$63, %rdi
	testq	%rdx, %rdx
	cmovneq	%rdi, %rsi
	xorl	%r9d, %r9d
	movl	$128, %edx
	subq	%rsi, %rdx
	movl	%r9d, %esi
	movq	%rsi, %rdi
	sbbq	%rdi, %rdi
	movq	%rdx, -64(%rsp)
	movq	%rdi, -56(%rsp)
	.loc	12 835 2
	movl	-64(%rsp), %r9d
	decl	%r9d
	movl	%r9d, -68(%rsp)
	.loc	12 836 2
	movq	-64(%rsp), %rdx
	movq	-56(%rsp), %rdi
	movl	$53, %r8d
	subq	%rdx, %r8
	sbbq	%rdi, %rsi
	setl	%r10b
	andb	$1, %r10b
	cmpb	$0, %r10b
	je	LBB64_11
Ltmp554:
	.loc	12 837 3
	movq	-64(%rsp), %rax
	movq	-56(%rsp), %rcx
	movups	-64(%rsp), %xmm0
	movaps	LCPI64_0(%rip), %xmm1
	pcmpeqb	%xmm1, %xmm0
	pmovmskb	%xmm0, %edx
	subl	$65535, %edx
	movq	%rax, -104(%rsp)
	movq	%rcx, -112(%rsp)
	je	LBB64_5
	jmp	LBB64_13
Ltmp555:
LBB64_13:
	.loc	12 0 3 is_stmt 0
	movq	-104(%rsp), %rax
	.loc	12 837 3
	xorq	$55, %rax
	movq	-112(%rsp), %rcx
	orq	%rcx, %rax
	je	LBB64_6
	jmp	LBB64_7
Ltmp556:
LBB64_5:
	.loc	12 839 6 is_stmt 1
	movq	-32(%rsp), %rax
	movq	-24(%rsp), %rcx
	movq	%rax, %rdx
	addq	%rdx, %rdx
	shldq	$1, %rax, %rcx
	movq	%rcx, -24(%rsp)
	movq	%rdx, -32(%rsp)
	jmp	LBB64_8
Ltmp557:
LBB64_6:
	jmp	LBB64_8
Ltmp558:
LBB64_7:
	.loc	12 843 6
	movq	-32(%rsp), %rax
	movq	-24(%rsp), %rcx
	movq	-64(%rsp), %rdx
	movq	-56(%rsp), %rsi
	movq	%rdx, %rdi
	addq	$-55, %rdi
	movq	%rsi, %r8
	adcq	$-1, %r8
	movb	%dil, %r9b
	movq	%rcx, -120(%rsp)
	movb	%r9b, %cl
	movq	-120(%rsp), %r10
	shrq	%cl, %r10
	movb	%r9b, %cl
	movq	%rax, %r11
	movq	-120(%rsp), %rbx
	shrdq	%cl, %rbx, %r11
	xorl	%ebp, %ebp
	testb	$64, %r9b
	cmovneq	%r10, %r11
	movl	%ebp, %r14d
	cmovneq	%r14, %r10
	subq	$128, %rdi
	sbbq	$0, %r8
	movq	%r14, %r15
	cmovbq	%r10, %r15
	movq	%r14, %r10
	cmovbq	%r11, %r10
	movl	$183, %r11d
	subq	%rdx, %r11
	movq	%r14, %rdx
	sbbq	%rsi, %rdx
	movb	%r11b, %cl
	movq	$-1, %rsi
	movb	%cl, -121(%rsp)
	movq	%rsi, %r12
	shrq	%cl, %r12
	movb	-121(%rsp), %cl
	testb	$64, %cl
	movq	%r12, %r13
	cmovneq	%r14, %r13
	cmovneq	%r12, %rsi
	subq	$128, %r11
	sbbq	$0, %rdx
	movq	%r14, %r12
	cmovbq	%rsi, %r12
	cmovbq	%r13, %r14
	andq	%r14, %rbx
	andq	%r12, %rax
	orq	%rbx, %rax
	setne	%r9b
	movzbl	%r9b, %ebp
	movl	%ebp, %esi
	orq	%rsi, %r10
	movq	%r15, -24(%rsp)
	movq	%r10, -32(%rsp)
Ltmp559:
LBB64_8:
	.loc	12 847 5
	movq	-32(%rsp), %rax
	movl	%eax, %ecx
	andl	$4, %ecx
	movl	%ecx, %edx
	shrq	$2, %rdx
	orq	%rdx, %rax
	movq	%rax, -32(%rsp)
	.loc	12 848 5
	movq	-32(%rsp), %rax
	addq	$1, %rax
	adcq	$0, -24(%rsp)
	movq	%rax, -32(%rsp)
	.loc	12 849 5
	movq	-32(%rsp), %rax
	movq	-24(%rsp), %rdx
	movq	%rdx, %rsi
	shldq	$62, %rax, %rsi
	sarq	$2, %rdx
	movq	%rdx, -24(%rsp)
	movq	%rsi, -32(%rsp)
	.loc	12 851 3
	movb	-26(%rsp), %dil
	andb	$32, %dil
	shrb	$5, %dil
	andb	$1, %dil
	cmpb	$0, %dil
	je	LBB64_10
Ltmp560:
	.loc	12 852 6
	movq	-32(%rsp), %rax
	movq	-24(%rsp), %rcx
	movq	%rcx, %rdx
	shldq	$63, %rax, %rdx
	sarq	%rcx
	movq	%rcx, -24(%rsp)
	movq	%rdx, -32(%rsp)
	.loc	12 853 6
	movl	-68(%rsp), %esi
	addl	$1, %esi
	movl	%esi, -68(%rsp)
Ltmp561:
LBB64_10:
	jmp	LBB64_12
Ltmp562:
LBB64_11:
	.loc	12 856 5
	movl	-64(%rsp), %eax
	movl	$53, %ecx
	subl	%eax, %ecx
	movl	%ecx, %edx
	andl	$127, %edx
	movl	%edx, %esi
	movq	-32(%rsp), %rdi
	movq	-24(%rsp), %r8
	movb	%sil, %r9b
	movb	%r9b, %cl
	movq	%rdi, %r10
	shlq	%cl, %r10
	movb	%r9b, %cl
	shldq	%cl, %rdi, %r8
	xorl	%eax, %eax
	testb	$64, %r9b
	cmovneq	%r10, %r8
	movl	%eax, %edi
	cmovneq	%rdi, %r10
	subq	$128, %rsi
	movq	%rdi, %r11
	cmovbq	%r8, %r11
	cmovbq	%r10, %rdi
	movq	%r11, -24(%rsp)
	movq	%rdi, -32(%rsp)
Ltmp563:
LBB64_12:
	.loc	12 858 2
	movq	$0, -80(%rsp)
	.loc	12 859 8
	movl	-48(%rsp), %eax
	andl	$-2147483648, %eax
	movl	-68(%rsp), %ecx
	shll	$20, %ecx
	addl	$1072693248, %ecx
	orl	%ecx, %eax
	movl	-28(%rsp), %ecx
	andl	$1048575, %ecx
	orl	%ecx, %eax
	movl	%eax, -76(%rsp)
	.loc	12 862 8
	movl	-32(%rsp), %eax
	movl	%eax, -80(%rsp)
	.loc	12 863 2
	movsd	-80(%rsp), %xmm0
	popq	%rbx
	popq	%r12
	popq	%r13
	popq	%r14
	popq	%r15
	popq	%rbp
	retq
Ltmp564:
Lfunc_end64:
	.cfi_endproc

	.section	__TEXT,__literal16,16byte_literals
	.p2align	4
LCPI65_0:
	.long	54
	.long	0
	.long	0
	.long	0
	.section	__TEXT,__text,regular,pure_instructions
	.globl	___floattidf_unsigned
	.p2align	4, 0x90
___floattidf_unsigned:
Lfunc_begin65:
	.loc	12 869 0
	.cfi_startproc
	pushq	%rbp
	.cfi_def_cfa_offset 16
	pushq	%r15
	.cfi_def_cfa_offset 24
	pushq	%r14
	.cfi_def_cfa_offset 32
	pushq	%r13
	.cfi_def_cfa_offset 40
	pushq	%r12
	.cfi_def_cfa_offset 48
	pushq	%rbx
	.cfi_def_cfa_offset 56
	.cfi_offset %rbx, -56
	.cfi_offset %r12, -48
	.cfi_offset %r13, -40
	.cfi_offset %r14, -32
	.cfi_offset %r15, -24
	.cfi_offset %rbp, -16
	movq	%rsi, -72(%rsp)
	movq	%rdi, -80(%rsp)
Ltmp565:
	movq	-80(%rsp), %rax
	movq	%rax, -16(%rsp)
	movq	-72(%rsp), %rcx
	movq	%rcx, -8(%rsp)
Ltmp566:
	.loc	12 874 2 prologue_end
	orq	%rcx, %rax
	sete	%dl
	andb	$1, %dl
	cmpb	$0, %dl
	je	LBB65_3
Ltmp567:
	.loc	12 875 3
	xorps	%xmm0, %xmm0
	popq	%rbx
	popq	%r12
	popq	%r13
	popq	%r14
	popq	%r15
	popq	%rbp
	retq
Ltmp568:
LBB65_3:
	.loc	12 0 3 is_stmt 0
	movq	-80(%rsp), %rax
	.loc	12 877 2 is_stmt 1
	movq	%rax, -32(%rsp)
	movq	-72(%rsp), %rcx
	movq	%rcx, -24(%rsp)
	.loc	12 879 2
	movq	-24(%rsp), %rdx
	bsrq	-32(%rsp), %rsi
	movl	$127, %edi
	cmoveq	%rdi, %rsi
	xorq	$63, %rsi
	addq	$64, %rsi
	bsrq	%rdx, %rdi
	xorq	$63, %rdi
	testq	%rdx, %rdx
	cmovneq	%rdi, %rsi
	xorl	%r8d, %r8d
	movl	$128, %edx
	subq	%rsi, %rdx
	movl	%r8d, %esi
	movq	%rsi, %rdi
	sbbq	%rdi, %rdi
	movq	%rdx, -48(%rsp)
	movq	%rdi, -40(%rsp)
	.loc	12 880 2
	movl	-48(%rsp), %r8d
	decl	%r8d
	movl	%r8d, -52(%rsp)
	.loc	12 881 2
	movq	-48(%rsp), %rdx
	movq	-40(%rsp), %rdi
	movl	$53, %r9d
	subq	%rdx, %r9
	sbbq	%rdi, %rsi
	setb	%r10b
	andb	$1, %r10b
	cmpb	$0, %r10b
	je	LBB65_11
Ltmp569:
	.loc	12 882 3
	movq	-48(%rsp), %rax
	movq	-40(%rsp), %rcx
	movups	-48(%rsp), %xmm0
	movaps	LCPI65_0(%rip), %xmm1
	pcmpeqb	%xmm1, %xmm0
	pmovmskb	%xmm0, %edx
	subl	$65535, %edx
	movq	%rax, -88(%rsp)
	movq	%rcx, -96(%rsp)
	je	LBB65_5
	jmp	LBB65_13
Ltmp570:
LBB65_13:
	.loc	12 0 3 is_stmt 0
	movq	-88(%rsp), %rax
	.loc	12 882 3
	xorq	$55, %rax
	movq	-96(%rsp), %rcx
	orq	%rcx, %rax
	je	LBB65_6
	jmp	LBB65_7
Ltmp571:
LBB65_5:
	.loc	12 884 6 is_stmt 1
	movq	-32(%rsp), %rax
	movq	-24(%rsp), %rcx
	movq	%rax, %rdx
	addq	%rdx, %rdx
	shldq	$1, %rax, %rcx
	movq	%rcx, -24(%rsp)
	movq	%rdx, -32(%rsp)
	jmp	LBB65_8
Ltmp572:
LBB65_6:
	jmp	LBB65_8
Ltmp573:
LBB65_7:
	.loc	12 888 6
	movq	-32(%rsp), %rax
	movq	-24(%rsp), %rcx
	movq	-48(%rsp), %rdx
	movq	-40(%rsp), %rsi
	movq	%rdx, %rdi
	addq	$-55, %rdi
	movq	%rsi, %r8
	adcq	$-1, %r8
	movb	%dil, %r9b
	movq	%rcx, -104(%rsp)
	movb	%r9b, %cl
	movq	-104(%rsp), %r10
	shrq	%cl, %r10
	movb	%r9b, %cl
	movq	%rax, %r11
	movq	-104(%rsp), %rbx
	shrdq	%cl, %rbx, %r11
	xorl	%ebp, %ebp
	testb	$64, %r9b
	cmovneq	%r10, %r11
	movl	%ebp, %r14d
	cmovneq	%r14, %r10
	subq	$128, %rdi
	sbbq	$0, %r8
	movq	%r14, %r15
	cmovbq	%r10, %r15
	movq	%r14, %r10
	cmovbq	%r11, %r10
	movl	$183, %r11d
	subq	%rdx, %r11
	movq	%r14, %rdx
	sbbq	%rsi, %rdx
	movb	%r11b, %cl
	movq	$-1, %rsi
	movb	%cl, -105(%rsp)
	movq	%rsi, %r12
	shrq	%cl, %r12
	movb	-105(%rsp), %cl
	testb	$64, %cl
	movq	%r12, %r13
	cmovneq	%r14, %r13
	cmovneq	%r12, %rsi
	subq	$128, %r11
	sbbq	$0, %rdx
	movq	%r14, %r12
	cmovbq	%rsi, %r12
	cmovbq	%r13, %r14
	andq	%r14, %rbx
	andq	%r12, %rax
	orq	%rbx, %rax
	setne	%r9b
	movzbl	%r9b, %ebp
	movl	%ebp, %esi
	orq	%rsi, %r10
	movq	%r15, -24(%rsp)
	movq	%r10, -32(%rsp)
Ltmp574:
LBB65_8:
	.loc	12 892 5
	movq	-32(%rsp), %rax
	movl	%eax, %ecx
	andl	$4, %ecx
	movl	%ecx, %edx
	shrq	$2, %rdx
	orq	%rdx, %rax
	movq	%rax, -32(%rsp)
	.loc	12 893 5
	movq	-32(%rsp), %rax
	addq	$1, %rax
	adcq	$0, -24(%rsp)
	movq	%rax, -32(%rsp)
	.loc	12 894 5
	movq	-32(%rsp), %rax
	movq	-24(%rsp), %rdx
	movq	%rdx, %rsi
	shldq	$62, %rax, %rsi
	shrq	$2, %rdx
	movq	%rdx, -24(%rsp)
	movq	%rsi, -32(%rsp)
	.loc	12 896 3
	movb	-26(%rsp), %dil
	andb	$32, %dil
	shrb	$5, %dil
	andb	$1, %dil
	cmpb	$0, %dil
	je	LBB65_10
Ltmp575:
	.loc	12 897 6
	movq	-32(%rsp), %rax
	movq	-24(%rsp), %rcx
	movq	%rcx, %rdx
	shldq	$63, %rax, %rdx
	shrq	%rcx
	movq	%rcx, -24(%rsp)
	movq	%rdx, -32(%rsp)
	.loc	12 898 6
	movl	-52(%rsp), %esi
	addl	$1, %esi
	movl	%esi, -52(%rsp)
Ltmp576:
LBB65_10:
	jmp	LBB65_12
Ltmp577:
LBB65_11:
	.loc	12 901 5
	movq	-48(%rsp), %rax
	movq	-40(%rsp), %rcx
	xorl	%edx, %edx
	movl	$53, %esi
	subq	%rax, %rsi
	movl	%edx, %eax
	movq	%rax, %rdi
	sbbq	%rcx, %rdi
	movq	-32(%rsp), %rcx
	movq	-24(%rsp), %r8
	movb	%sil, %r9b
	movq	%rcx, -120(%rsp)
	movb	%r9b, %cl
	movq	-120(%rsp), %r10
	shlq	%cl, %r10
	movb	%r9b, %cl
	movq	-120(%rsp), %r11
	shldq	%cl, %r11, %r8
	testb	$64, %r9b
	cmovneq	%r10, %r8
	cmovneq	%rax, %r10
	subq	$128, %rsi
	sbbq	$0, %rdi
	movq	%rax, %rbx
	cmovbq	%r10, %rbx
	cmovbq	%r8, %rax
	movq	%rax, -24(%rsp)
	movq	%rbx, -32(%rsp)
Ltmp578:
LBB65_12:
	.loc	12 903 2
	movq	$0, -64(%rsp)
	.loc	12 904 8
	movl	-52(%rsp), %eax
	shll	$20, %eax
	movl	-28(%rsp), %ecx
	andl	$1048575, %ecx
	movl	%ecx, %edx
	movl	%eax, %esi
	leal	1072693248(%rsi,%rdx), %eax
	movl	%eax, -60(%rsp)
	.loc	12 907 8
	movl	-32(%rsp), %eax
	movl	%eax, -64(%rsp)
	.loc	12 908 2
	movsd	-64(%rsp), %xmm0
	popq	%rbx
	popq	%r12
	popq	%r13
	popq	%r14
	popq	%r15
	popq	%rbp
	retq
Ltmp579:
Lfunc_end65:
	.cfi_endproc

	.section	__TEXT,__literal8,8byte_literals
	.p2align	3
LCPI66_0:
	.quad	0x43e0000000000000
	.section	__TEXT,__text,regular,pure_instructions
	.globl	___fixunsdfti
	.p2align	4, 0x90
___fixunsdfti:
Lfunc_begin66:
	.loc	12 915 0
	.cfi_startproc
	movsd	%xmm0, -24(%rsp)
Ltmp580:
	movsd	-24(%rsp), %xmm0
	movsd	%xmm0, -8(%rsp)
	movsd	LCPI66_0(%rip), %xmm1
Ltmp581:
	.loc	12 917 2 prologue_end
	subsd	%xmm1, %xmm0
	cvttsd2si	%xmm0, %rax
	movabsq	$-9223372036854775808, %rcx
	xorq	%rcx, %rax
	movsd	-24(%rsp), %xmm0
	cvttsd2si	%xmm0, %rcx
	ucomisd	%xmm1, %xmm0
	cmovbq	%rcx, %rax
	movq	%rax, -16(%rsp)
	.loc	12 918 2
	movq	-16(%rsp), %rax
	xorl	%edx, %edx
	retq
Ltmp582:
Lfunc_end66:
	.cfi_endproc

	.globl	___fixunsdfdi
	.p2align	4, 0x90
___fixunsdfdi:
Lfunc_begin67:
	.loc	12 922 0
	.cfi_startproc
	movsd	%xmm0, -24(%rsp)
Ltmp583:
	movsd	-24(%rsp), %xmm0
	movsd	%xmm0, -8(%rsp)
Ltmp584:
	.loc	12 924 2 prologue_end
	cvttsd2si	%xmm0, %rax
	movq	%rax, -16(%rsp)
	.loc	12 925 2
	movq	-16(%rsp), %rax
	movq	%rax, %rcx
	sarq	$63, %rcx
	movq	%rcx, %rdx
	retq
Ltmp585:
Lfunc_end67:
	.cfi_endproc

	.globl	___umodti3
	.p2align	4, 0x90
___umodti3:
Lfunc_begin68:
	.loc	12 932 0
	.cfi_startproc
	subq	$104, %rsp
	.cfi_def_cfa_offset 112
	movq	%rcx, 48(%rsp)
	movq	%rdx, 40(%rsp)
Ltmp586:
	movq	%rsi, 32(%rsp)
	movq	%rdi, 24(%rsp)
Ltmp587:
	movq	24(%rsp), %rax
	movq	%rax, 88(%rsp)
	movq	32(%rsp), %rcx
	movq	%rcx, 96(%rsp)
	movq	48(%rsp), %rdx
	movq	%rdx, 80(%rsp)
	movq	40(%rsp), %rsi
	movq	%rsi, 72(%rsp)
	leaq	56(%rsp), %r8
Ltmp588:
	.loc	12 934 4 prologue_end
	movq	%rax, %rdi
	movq	%rcx, %rsi
	movq	40(%rsp), %rdx
	movq	48(%rsp), %rcx
	callq	_runtime.udivmod128
	.loc	12 935 2
	movq	56(%rsp), %rcx
	movq	64(%rsp), %rsi
	movq	%rax, 16(%rsp)
	movq	%rcx, %rax
	movq	%rdx, 8(%rsp)
	movq	%rsi, %rdx
	addq	$104, %rsp
	retq
Ltmp589:
Lfunc_end68:
	.cfi_endproc

	.globl	___udivmodti4
	.p2align	4, 0x90
___udivmodti4:
Lfunc_begin69:
	.loc	12 940 0
	.cfi_startproc
	subq	$88, %rsp
	.cfi_def_cfa_offset 96
	movq	%r8, 40(%rsp)
Ltmp590:
	movq	%rcx, 32(%rsp)
	movq	%rdx, 24(%rsp)
Ltmp591:
	movq	%rsi, 16(%rsp)
	movq	%rdi, 8(%rsp)
Ltmp592:
	movq	8(%rsp), %rax
	movq	%rax, 72(%rsp)
	movq	16(%rsp), %rcx
	movq	%rcx, 80(%rsp)
	movq	32(%rsp), %rdx
	movq	%rdx, 64(%rsp)
	movq	24(%rsp), %rsi
	movq	%rsi, 56(%rsp)
	movq	40(%rsp), %rdi
	movq	%rdi, 48(%rsp)
Ltmp593:
	.loc	12 941 2 prologue_end
	movq	%rax, %rdi
	movq	%rcx, %rsi
	movq	24(%rsp), %rdx
	movq	32(%rsp), %rcx
	movq	40(%rsp), %r8
	callq	_runtime.udivmod128
	addq	$88, %rsp
	retq
Ltmp594:
Lfunc_end69:
	.cfi_endproc

	.globl	___udivti3
	.p2align	4, 0x90
___udivti3:
Lfunc_begin70:
	.loc	12 945 0
	.cfi_startproc
	subq	$72, %rsp
	.cfi_def_cfa_offset 80
	movq	%rcx, 32(%rsp)
	movq	%rdx, 24(%rsp)
Ltmp595:
	movq	%rsi, 16(%rsp)
	movq	%rdi, 8(%rsp)
Ltmp596:
	movq	8(%rsp), %rax
	movq	%rax, 56(%rsp)
	movq	16(%rsp), %rcx
	movq	%rcx, 64(%rsp)
	movq	32(%rsp), %rdx
	movq	%rdx, 48(%rsp)
	movq	24(%rsp), %rsi
	movq	%rsi, 40(%rsp)
	xorl	%edi, %edi
	movl	%edi, %r8d
Ltmp597:
	.loc	12 946 2 prologue_end
	movq	%rax, %rdi
	movq	%rcx, %rsi
	movq	24(%rsp), %rdx
	movq	32(%rsp), %rcx
	callq	___udivmodti4
	addq	$72, %rsp
	retq
Ltmp598:
Lfunc_end70:
	.cfi_endproc

	.globl	___modti3
	.p2align	4, 0x90
___modti3:
Lfunc_begin71:
	.loc	12 951 0
	.cfi_startproc
	subq	$168, %rsp
	.cfi_def_cfa_offset 176
	movq	%rcx, 48(%rsp)
	movq	%rdx, 40(%rsp)
Ltmp599:
	movq	%rsi, 32(%rsp)
	movq	%rdi, 24(%rsp)
Ltmp600:
	movq	24(%rsp), %rax
	movq	%rax, 152(%rsp)
	movq	32(%rsp), %rcx
	movq	%rcx, 160(%rsp)
	movq	48(%rsp), %rdx
	movq	%rdx, 144(%rsp)
	movq	40(%rsp), %rsi
	movq	%rsi, 136(%rsp)
Ltmp601:
	.loc	12 952 2 prologue_end
	sarq	$63, %rcx
	movq	%rcx, 128(%rsp)
	movq	%rcx, 120(%rsp)
	.loc	12 953 2
	sarq	$63, %rdx
	movq	%rdx, 112(%rsp)
	movq	%rdx, 104(%rsp)
	.loc	12 954 2
	movq	120(%rsp), %rcx
	movq	128(%rsp), %rdx
	movq	32(%rsp), %rdi
	xorq	%rdx, %rdi
	xorq	%rcx, %rax
	subq	%rcx, %rax
	sbbq	%rdx, %rdi
	movq	%rax, 88(%rsp)
	movq	%rdi, 96(%rsp)
	.loc	12 955 2
	movq	104(%rsp), %rax
	movq	112(%rsp), %rcx
	movq	48(%rsp), %rdx
	xorq	%rcx, %rdx
	xorq	%rax, %rsi
	subq	%rax, %rsi
	sbbq	%rcx, %rdx
	movq	%rsi, 72(%rsp)
	movq	%rdx, 80(%rsp)
	.loc	12 958 4
	movq	88(%rsp), %rdi
	movq	96(%rsp), %rsi
	movq	72(%rsp), %rdx
	movq	80(%rsp), %rcx
	leaq	56(%rsp), %r8
	callq	_runtime.udivmod128
	.loc	12 959 2
	movq	56(%rsp), %rcx
	movq	64(%rsp), %rsi
	movq	120(%rsp), %rdi
	movq	128(%rsp), %r8
	xorq	%r8, %rsi
	xorq	%rdi, %rcx
	subq	%rdi, %rcx
	sbbq	%r8, %rsi
	movq	%rax, 16(%rsp)
	movq	%rcx, %rax
	movq	%rdx, 8(%rsp)
	movq	%rsi, %rdx
	addq	$168, %rsp
	retq
Ltmp602:
Lfunc_end71:
	.cfi_endproc

	.globl	___divmodti4
	.p2align	4, 0x90
___divmodti4:
Lfunc_begin72:
	.loc	12 964 0
	.cfi_startproc
	subq	$104, %rsp
	.cfi_def_cfa_offset 112
	movq	%r8, 40(%rsp)
Ltmp603:
	movq	%rcx, 32(%rsp)
	movq	%rdx, 24(%rsp)
Ltmp604:
	movq	%rsi, 16(%rsp)
	movq	%rdi, 8(%rsp)
Ltmp605:
	movq	8(%rsp), %rax
	movq	%rax, 88(%rsp)
	movq	16(%rsp), %rcx
	movq	%rcx, 96(%rsp)
	movq	32(%rsp), %rdx
	movq	%rdx, 80(%rsp)
	movq	24(%rsp), %rsi
	movq	%rsi, 72(%rsp)
	movq	40(%rsp), %rdi
	movq	%rdi, 64(%rsp)
Ltmp606:
	.loc	12 965 2 prologue_end
	movq	%rax, %rdi
	movq	%rcx, %rsi
	movq	24(%rsp), %rdx
	movq	32(%rsp), %rcx
	movq	40(%rsp), %r8
	callq	_runtime.udivmod128
	movq	%rdx, 56(%rsp)
	movq	%rax, 48(%rsp)
	.loc	12 966 2
	movq	48(%rsp), %rax
	movq	56(%rsp), %rdx
	addq	$104, %rsp
	retq
Ltmp607:
Lfunc_end72:
	.cfi_endproc

	.globl	___divti3
	.p2align	4, 0x90
___divti3:
Lfunc_begin73:
	.loc	12 970 0
	.cfi_startproc
	subq	$88, %rsp
	.cfi_def_cfa_offset 96
	movq	%rcx, 32(%rsp)
	movq	%rdx, 24(%rsp)
Ltmp608:
	movq	%rsi, 16(%rsp)
	movq	%rdi, 8(%rsp)
Ltmp609:
	movq	8(%rsp), %rax
	movq	%rax, 72(%rsp)
	movq	16(%rsp), %rcx
	movq	%rcx, 80(%rsp)
	movq	32(%rsp), %rdx
	movq	%rdx, 64(%rsp)
	movq	24(%rsp), %rsi
	movq	%rsi, 56(%rsp)
	xorl	%edi, %edi
	movl	%edi, %r8d
Ltmp610:
	.loc	12 971 2 prologue_end
	movq	%rax, %rdi
	movq	%rcx, %rsi
	movq	24(%rsp), %rdx
	movq	32(%rsp), %rcx
	callq	___udivmodti4
	movq	%rdx, 48(%rsp)
	movq	%rax, 40(%rsp)
	.loc	12 972 2
	movq	40(%rsp), %rax
	movq	48(%rsp), %rdx
	addq	$88, %rsp
	retq
Ltmp611:
Lfunc_end73:
	.cfi_endproc

	.section	__TEXT,__literal16,16byte_literals
	.p2align	4
LCPI74_0:
	.long	1
	.long	0
	.long	0
	.long	0
	.section	__TEXT,__text,regular,pure_instructions
	.globl	___fixdfti
	.p2align	4, 0x90
___fixdfti:
Lfunc_begin74:
	.loc	12 977 0
	.cfi_startproc
	pushq	%rax
	.cfi_def_cfa_offset 16
Ltmp612:
	movq	%rdi, -56(%rsp)
Ltmp613:
	movq	-56(%rsp), %rax
	movq	%rax, (%rsp)
Ltmp614:
	.loc	12 991 2 prologue_end
	movq	%rax, -8(%rsp)
	.loc	12 992 2
	movabsq	$9223372036854775807, %rcx
	andq	-8(%rsp), %rcx
	movq	%rcx, -16(%rsp)
	.loc	12 993 2
	movabsq	$-9223372036854775808, %rcx
	andq	-8(%rsp), %rcx
	cmpq	$0, %rcx
	setne	%dl
	andb	$1, %dl
	cmpb	$0, %dl
	je	LBB74_3
Ltmp615:
	.loc	12 0 2 is_stmt 0
	movq	$-1, %rax
	movq	%rax, %rcx
	movq	%rcx, -64(%rsp)
	movq	%rax, -72(%rsp)
	.loc	12 993 2
	jmp	LBB74_4
Ltmp616:
LBB74_3:
	.loc	12 0 2
	movl	$1, %eax
	xorl	%ecx, %ecx
	movl	%ecx, %edx
	movq	%rax, -64(%rsp)
	movq	%rdx, -72(%rsp)
	.loc	12 993 2
	jmp	LBB74_4
Ltmp617:
LBB74_4:
	.loc	12 0 2
	movq	-72(%rsp), %rax
	movq	-64(%rsp), %rcx
	xorl	%edx, %edx
	movl	%edx, %esi
Ltmp618:
	.loc	12 993 2
	movq	%rcx, -32(%rsp)
	movq	%rax, -24(%rsp)
	.loc	12 994 2 is_stmt 1
	movq	-16(%rsp), %rax
	shrq	$52, %rax
	movb	$1, %dil
	testb	$1, %dil
	cmovneq	%rax, %rsi
	subq	$1023, %rsi
	movq	%rsi, -40(%rsp)
	.loc	12 995 2
	movabsq	$4503599627370495, %rax
	andq	-16(%rsp), %rax
	movabsq	$4503599627370496, %rcx
	orq	%rcx, %rax
	movq	%rax, -48(%rsp)
	.loc	12 998 2
	cmpq	$0, -40(%rsp)
	setb	%dil
	andb	$1, %dil
	cmpb	$0, %dil
	je	LBB74_6
Ltmp619:
	.loc	12 0 2 is_stmt 0
	xorl	%eax, %eax
	movl	%eax, %ecx
Ltmp620:
	.loc	12 999 3 is_stmt 1
	movq	%rcx, %rax
	movq	%rcx, %rdx
	popq	%rcx
	retq
Ltmp621:
LBB74_6:
	.loc	12 1003 2
	cmpq	$128, -40(%rsp)
	setae	%al
	andb	$1, %al
	cmpb	$0, %al
	je	LBB74_11
Ltmp622:
	.loc	12 1004 3
	movups	-32(%rsp), %xmm0
	movaps	LCPI74_0(%rip), %xmm1
	pcmpeqb	%xmm1, %xmm0
	pmovmskb	%xmm0, %eax
	subl	$65535, %eax
	sete	%cl
	andb	$1, %cl
	cmpb	$0, %cl
	je	LBB74_9
Ltmp623:
	.loc	12 0 3 is_stmt 0
	movabsq	$9223372036854775807, %rax
	movq	$-1, %rcx
	movq	%rcx, -80(%rsp)
	movq	%rax, -88(%rsp)
	.loc	12 1004 3
	jmp	LBB74_10
Ltmp624:
LBB74_9:
	.loc	12 0 3
	movabsq	$-9223372036854775808, %rax
	xorl	%ecx, %ecx
	movl	%ecx, %edx
	movq	%rdx, -80(%rsp)
	movq	%rax, -88(%rsp)
	.loc	12 1004 3
	jmp	LBB74_10
Ltmp625:
LBB74_10:
	.loc	12 0 3
	movq	-88(%rsp), %rax
	movq	-80(%rsp), %rcx
	movq	%rax, -96(%rsp)
	.loc	12 1004 3
	movq	%rcx, %rax
	movq	-96(%rsp), %rdx
	popq	%rcx
	retq
Ltmp626:
LBB74_11:
	.loc	12 1009 2 is_stmt 1
	cmpq	$52, -40(%rsp)
	setb	%al
	andb	$1, %al
	cmpb	$0, %al
	je	LBB74_13
Ltmp627:
	.loc	12 1010 3
	movq	-32(%rsp), %rax
	movq	-24(%rsp), %rcx
	movq	-48(%rsp), %rdx
	movq	-40(%rsp), %rsi
	movl	$52, %edi
	subq	%rsi, %rdi
	movb	%dil, %r8b
	movq	%rcx, -104(%rsp)
	movb	%r8b, %cl
	shrq	%cl, %rdx
	xorl	%r9d, %r9d
	subq	$64, %rdi
	movl	%r9d, %esi
	cmovbq	%rdx, %rsi
	movq	-104(%rsp), %rdx
	imulq	%rsi, %rdx
	movq	%rdx, -112(%rsp)
	mulq	%rsi
	movq	-112(%rsp), %rsi
	addq	%rsi, %rdx
	popq	%rcx
	retq
Ltmp628:
LBB74_13:
	.loc	12 1012 3
	movq	-32(%rsp), %rax
	movq	-24(%rsp), %rcx
	movq	-48(%rsp), %rdx
	movq	-40(%rsp), %rsi
	addq	$-52, %rsi
	movb	%sil, %dil
	xorl	%r8d, %r8d
	movl	%r8d, %r9d
	movq	%rcx, -120(%rsp)
	movb	%dil, %cl
	movq	%r9, %r10
	shldq	%cl, %rdx, %r10
	movb	%dil, %cl
	shlq	%cl, %rdx
	testb	$64, %dil
	cmovneq	%rdx, %r10
	cmovneq	%r9, %rdx
	subq	$128, %rsi
	movq	%r9, %r11
	cmovbq	%r10, %r11
	cmovbq	%rdx, %r9
	movq	%rax, %rdx
	imulq	%r11, %rdx
	movq	%rdx, -128(%rsp)
	mulq	%r9
	movq	-128(%rsp), %r10
	addq	%r10, %rdx
	movq	-120(%rsp), %r10
	imulq	%r9, %r10
	addq	%r10, %rdx
	popq	%rcx
	retq
Ltmp629:
Lfunc_end74:
	.cfi_endproc

	.p2align	4, 0x90
_os.get_last_error:
Lfunc_begin75:
	.loc	6 494 0
	.cfi_startproc
	pushq	%rax
	.cfi_def_cfa_offset 16
Ltmp630:
	.loc	6 494 48 prologue_end
	jmp	LBB75_1
LBB75_1:
Ltmp631:
	.loc	6 495 2
	callq	___error
	movslq	(%rax), %rax
	popq	%rcx
	retq
Ltmp632:
Lfunc_end75:
	.cfi_endproc

	.p2align	4, 0x90
_os.write:
Lfunc_begin76:
	.loc	6 546 0
	.cfi_startproc
	subq	$104, %rsp
	.cfi_def_cfa_offset 112
Ltmp633:
	movl	%edi, 20(%rsp)
Ltmp634:
	movq	%rdx, 8(%rsp)
	movq	%rsi, (%rsp)
Ltmp635:
	movl	20(%rsp), %eax
	movl	%eax, 100(%rsp)
	movq	8(%rsp), %rcx
	movq	%rcx, 88(%rsp)
	movq	(%rsp), %rdx
	movq	%rdx, 80(%rsp)
Ltmp636:
	.loc	6 547 2 prologue_end
	cmpq	$0, %rcx
	sete	%sil
	andb	$1, %sil
	cmpb	$0, %sil
	je	LBB76_3
Ltmp637:
	.loc	6 548 3
	movq	$0, 64(%rsp)
	movq	$0, 72(%rsp)
	movq	64(%rsp), %rax
	movq	72(%rsp), %rdx
	addq	$104, %rsp
	retq
Ltmp638:
LBB76_3:
	.loc	6 0 3 is_stmt 0
	movl	20(%rsp), %edi
	movq	(%rsp), %rsi
	movq	8(%rsp), %rdx
	.loc	6 551 2 is_stmt 1
	callq	_write
	movq	%rax, 56(%rsp)
	.loc	6 552 2
	cmpq	$0, 56(%rsp)
	setl	%cl
	andb	$1, %cl
	cmpb	$0, %cl
	je	LBB76_5
Ltmp639:
	.loc	6 553 3
	callq	_os.get_last_error
	movq	$-1, 40(%rsp)
	movq	%rax, 48(%rsp)
	movq	40(%rsp), %rax
	movq	48(%rsp), %rdx
	addq	$104, %rsp
	retq
Ltmp640:
LBB76_5:
	.loc	6 555 2
	movq	56(%rsp), %rax
	movq	%rax, 24(%rsp)
	movq	$0, 32(%rsp)
	movq	24(%rsp), %rax
	movq	32(%rsp), %rdx
	addq	$104, %rsp
	retq
Ltmp641:
Lfunc_end76:
	.cfi_endproc

	.p2align	4, 0x90
_os.heap_alloc:
Lfunc_begin77:
	.loc	6 834 0
	.cfi_startproc
	subq	$40, %rsp
	.cfi_def_cfa_offset 48
Ltmp642:
	movq	%rdi, 16(%rsp)
Ltmp643:
	movb	%sil, 15(%rsp)
Ltmp644:
	movq	16(%rsp), %rax
	movq	%rax, 32(%rsp)
	movb	15(%rsp), %cl
	andb	$1, %cl
	movb	%cl, 31(%rsp)
Ltmp645:
	.loc	6 835 2 prologue_end
	cmpq	$0, %rax
	setle	%dl
	andb	$1, %dl
	cmpb	$0, %dl
	movb	%cl, 14(%rsp)
Ltmp646:
	je	LBB77_3
Ltmp647:
	.loc	6 0 2 is_stmt 0
	xorl	%eax, %eax
Ltmp648:
	.loc	6 836 3 is_stmt 1
	addq	$40, %rsp
	retq
Ltmp649:
LBB77_3:
	.loc	6 0 3 is_stmt 0
	movb	14(%rsp), %al
	.loc	6 838 2 is_stmt 1
	cmpb	$0, %al
	je	LBB77_5
Ltmp650:
	.loc	6 839 3
	movl	$1, %edi
	movq	16(%rsp), %rsi
	callq	_calloc
	addq	$40, %rsp
	retq
Ltmp651:
LBB77_5:
	.loc	6 0 3 is_stmt 0
	movq	16(%rsp), %rdi
Ltmp652:
	.loc	6 841 3 is_stmt 1
	callq	_malloc
	addq	$40, %rsp
	retq
Ltmp653:
Lfunc_end77:
	.cfi_endproc

	.p2align	4, 0x90
_os.heap_resize:
Lfunc_begin78:
	.loc	6 844 0
	.cfi_startproc
	subq	$40, %rsp
	.cfi_def_cfa_offset 48
Ltmp654:
	movq	%rdi, 16(%rsp)
Ltmp655:
	movq	%rsi, 8(%rsp)
Ltmp656:
	movq	16(%rsp), %rax
	movq	%rax, 32(%rsp)
	movq	8(%rsp), %rcx
	movq	%rcx, 24(%rsp)
Ltmp657:
	.loc	6 847 2 prologue_end
	movq	%rax, %rdi
	movq	%rcx, %rsi
	callq	_realloc
Ltmp658:
	addq	$40, %rsp
	retq
Ltmp659:
Lfunc_end78:
	.cfi_endproc

	.p2align	4, 0x90
_os.heap_free:
Lfunc_begin79:
	.loc	6 849 0
	.cfi_startproc
	subq	$24, %rsp
	.cfi_def_cfa_offset 32
Ltmp660:
	movq	%rdi, 8(%rsp)
Ltmp661:
	movq	8(%rsp), %rax
	movq	%rax, 16(%rsp)
Ltmp662:
	.loc	6 850 2 prologue_end
	movq	%rax, %rdi
	callq	_free
Ltmp663:
	.loc	6 851 1
	addq	$24, %rsp
	retq
Ltmp664:
Lfunc_end79:
	.cfi_endproc

	.p2align	4, 0x90
_runtime.default_allocator:
Lfunc_begin80:
	.file	20 "/Users/tarvydas/tools/Odin/core/runtime/default_allocators_general.odin"
	.loc	20 17 0
	.cfi_startproc
	subq	$24, %rsp
	.cfi_def_cfa_offset 32
Ltmp665:
	movq	%rdi, (%rsp)
Ltmp666:
	movq	(%rsp), %rdi
Ltmp667:
	.loc	20 18 3 prologue_end
	callq	_os.heap_allocator
	movq	%rdx, 16(%rsp)
	movq	%rax, 8(%rsp)
	movq	8(%rsp), %rax
	movq	16(%rsp), %rdx
	addq	$24, %rsp
	retq
Ltmp668:
Lfunc_end80:
	.cfi_endproc

	.p2align	4, 0x90
_runtime.default_temp_allocator_destroy:
Lfunc_begin81:
	.loc	3 31 0
	.cfi_startproc
	subq	$72, %rsp
	.cfi_def_cfa_offset 80
Ltmp669:
	movq	%rdi, 56(%rsp)
Ltmp670:
	movq	%rsi, 48(%rsp)
Ltmp671:
	movq	56(%rsp), %rax
	movq	%rax, 64(%rsp)
	movq	48(%rsp), %rcx
Ltmp672:
	.loc	3 32 3 prologue_end
	cmpq	$0, %rax
	setne	%dl
	andb	$1, %dl
	cmpb	$0, %dl
	movq	%rcx, 40(%rsp)
	je	LBB81_3
Ltmp673:
	.loc	3 33 4
	movq	64(%rsp), %rdi
	movq	40(%rsp), %rax
	movq	l_ggv$40+32(%rip), %rcx
	movq	%rsp, %rdx
	movq	%rcx, 32(%rdx)
	movq	l_ggv$40+24(%rip), %rcx
	movq	%rcx, 24(%rdx)
	movq	l_ggv$40+16(%rip), %rcx
	movq	%rcx, 16(%rdx)
	movq	l_ggv$40+8(%rip), %rcx
	movq	%rcx, 8(%rdx)
	movq	l_ggv$40(%rip), %rcx
	movq	%rcx, (%rdx)
	movq	%rax, %rsi
	callq	_runtime.arena_destroy
	xorl	%esi, %esi
	movq	56(%rsp), %rax
	.loc	3 34 7
	movq	%rax, %rdi
	movl	$56, %edx
	callq	_memset
Ltmp674:
LBB81_3:
	.loc	3 36 2
	addq	$72, %rsp
	retq
Ltmp675:
Lfunc_end81:
	.cfi_endproc

	.p2align	4, 0x90
_runtime.default_temp_allocator_proc:
Lfunc_begin82:
	.loc	3 38 0
	.cfi_startproc
	pushq	%rbp
	.cfi_def_cfa_offset 16
	pushq	%r14
	.cfi_def_cfa_offset 24
	pushq	%rbx
	.cfi_def_cfa_offset 32
	subq	$256, %rsp
	.cfi_def_cfa_offset 288
	.cfi_offset %rbx, -32
	.cfi_offset %r14, -24
	.cfi_offset %rbp, -16
	movq	%rdi, %rax
	movq	336(%rsp), %r10
	leaq	296(%rsp), %r11
	movq	288(%rsp), %rbx
Ltmp676:
	movq	%r9, 136(%rsp)
Ltmp677:
	movq	%r8, 128(%rsp)
Ltmp678:
	movq	%rcx, 120(%rsp)
Ltmp679:
	movq	%rsi, 112(%rsp)
Ltmp680:
	movq	%rdi, 104(%rsp)
	movb	%dl, 103(%rsp)
Ltmp681:
	movq	%rax, 88(%rsp)
	movq	%r10, 80(%rsp)
Ltmp682:
	movq	%r11, 72(%rsp)
	movq	%rbx, 64(%rsp)
Ltmp683:
	movq	112(%rsp), %rax
	movq	%rax, 248(%rsp)
	movb	103(%rsp), %cl
	movb	%cl, 247(%rsp)
	movq	120(%rsp), %rdx
	movq	%rdx, 232(%rsp)
	movq	128(%rsp), %rsi
	movq	%rsi, 224(%rsp)
	movq	136(%rsp), %rdi
	movq	%rdi, 216(%rsp)
	movq	64(%rsp), %r8
	movq	%r8, 208(%rsp)
	xorps	%xmm0, %xmm0
	movaps	%xmm0, 192(%rsp)
	movb	$0, 191(%rsp)
Ltmp684:
	.loc	3 42 3 prologue_end
	movq	%rax, 176(%rsp)
	.loc	3 43 3
	movq	176(%rsp), %rsi
	movaps	%xmm0, 144(%rsp)
	movq	$0, 160(%rsp)
	movq	72(%rsp), %r9
	movq	32(%r9), %r10
	movq	%rsp, %r11
	movq	%r10, 40(%r11)
	movq	24(%r9), %r10
	movq	%r10, 32(%r11)
	movq	16(%r9), %r10
	movq	%r10, 24(%r11)
	movq	(%r9), %r10
	movq	8(%r9), %rbx
	movq	%rbx, 16(%r11)
	movq	%r10, 8(%r11)
	movq	80(%rsp), %r10
	movq	%r10, 48(%r11)
	movq	%r8, (%r11)
	movzbl	%cl, %ebp
	leaq	144(%rsp), %rdi
	movl	%ebp, %edx
	movq	120(%rsp), %rcx
	movq	128(%rsp), %r8
	movq	136(%rsp), %r9
	callq	_runtime.arena_allocator_proc
	movb	160(%rsp), %r14b
	movq	144(%rsp), %rax
	movq	152(%rsp), %rcx
	movq	%rcx, 200(%rsp)
	movq	%rax, 192(%rsp)
	movb	%r14b, 191(%rsp)
	movq	104(%rsp), %rsi
	movq	%rcx, 8(%rsi)
	movq	%rax, (%rsi)
	movb	%r14b, 16(%rsi)
	movq	88(%rsp), %rax
	addq	$256, %rsp
	popq	%rbx
	popq	%r14
	popq	%rbp
	retq
Ltmp685:
Lfunc_end82:
	.cfi_endproc

	.globl	_main
	.p2align	4, 0x90
_main:
Lfunc_begin83:
	.file	21 "/Users/tarvydas/tools/Odin/core/runtime/entry_unix.odin"
	.loc	21 25 0
	.cfi_startproc
	pushq	%rbx
	.cfi_def_cfa_offset 16
	subq	$304, %rsp
	.cfi_def_cfa_offset 320
	.cfi_offset %rbx, -16
	movl	%edi, 76(%rsp)
Ltmp686:
	movq	%rsi, 64(%rsp)
Ltmp687:
	xorl	%esi, %esi
	movl	76(%rsp), %eax
	movl	%eax, 300(%rsp)
	movq	64(%rsp), %rcx
	movq	%rcx, 288(%rsp)
Ltmp688:
	.loc	21 26 10 prologue_end
	movq	288(%rsp), %rdx
	movslq	%eax, %rdi
	leaq	L_csbs$93(%rip), %r8
	xorl	%r9d, %r9d
	movl	%r9d, %r10d
	movl	$55, %r11d
	movl	$26, %r9d
	movl	$16, %ebx
	movq	%rdi, 56(%rsp)
	movq	%r8, %rdi
	movl	%esi, 52(%rsp)
	movq	%r11, %rsi
	movq	%rdx, 40(%rsp)
	movl	%r9d, %edx
	movl	%ebx, %ecx
	movq	%r10, %r8
	movq	56(%rsp), %r9
	callq	_runtime.multi_pointer_slice_expr_error
	movq	40(%rsp), %rsi
	movq	%rsi, 272(%rsp)
	movq	56(%rsp), %rsi
	movq	%rsi, 280(%rsp)
	movq	272(%rsp), %rdi
	movq	280(%rsp), %r8
	movq	%r8, _runtime.args__+8(%rip)
	movq	%rdi, _runtime.args__(%rip)
	.loc	21 27 11
	leaq	176(%rsp), %rdi
	movq	%rdi, %r8
	movq	%rdi, 32(%rsp)
	movq	%r8, %rdi
	movl	52(%rsp), %eax
	movl	%eax, %esi
	movl	$96, %edx
	callq	_memset
	movq	32(%rsp), %rdi
	callq	"_runtime.__init_context-822"
	xorl	%esi, %esi
	leaq	80(%rsp), %rdx
	movq	%rdx, %rdi
	movl	$96, %r8d
	movq	%rdx, 24(%rsp)
	movq	%r8, %rdx
	callq	_memset
	movq	24(%rsp), %rdi
	callq	_runtime.default_context
	leaq	176(%rsp), %rdx
	movq	%rdx, %rdi
	leaq	80(%rsp), %r8
	movl	$96, %r9d
	movq	%r8, %rsi
	movq	%rdx, 16(%rsp)
	movq	%r9, %rdx
	callq	_memmove
	movq	16(%rsp), %rdx
	.loc	21 28 20
	movq	%rdx, %rdi
	movq	%rax, 8(%rsp)
	callq	___$startup_runtime
	.loc	21 29 3
	leaq	176(%rsp), %rax
	movq	%rax, %rdi
	callq	_odinasm.main
	.loc	21 30 20
	leaq	176(%rsp), %rax
	movq	%rax, %rdi
	callq	___$cleanup_runtime
	xorl	%eax, %eax
	.loc	21 31 3
	addq	$304, %rsp
	popq	%rbx
	retq
Ltmp689:
Lfunc_end83:
	.cfi_endproc

	.p2align	4, 0x90
"_runtime.copy_slice-10695":
Lfunc_begin84:
	.loc	4 36 0
	.cfi_startproc
	subq	$72, %rsp
	.cfi_def_cfa_offset 80
	movq	%rcx, 24(%rsp)
	movq	%rdx, 16(%rsp)
Ltmp690:
	movq	%rsi, 8(%rsp)
	movq	%rdi, (%rsp)
Ltmp691:
	xorl	%eax, %eax
	movl	%eax, %ecx
	movq	(%rsp), %rdx
	movq	%rdx, 56(%rsp)
	movq	8(%rsp), %rsi
	movq	%rsi, 64(%rsp)
	movq	24(%rsp), %rdi
	movq	%rdi, 48(%rsp)
	movq	16(%rsp), %r8
	movq	%r8, 40(%rsp)
Ltmp692:
	.loc	4 37 2 prologue_end
	cmpq	%rdi, %rsi
	cmovlq	%rsi, %rdi
	cmpq	%rdi, %rcx
	cmovgq	%rcx, %rdi
	movq	%rdi, 32(%rsp)
	.loc	4 38 2
	cmpq	$0, 32(%rsp)
	setg	%r9b
	andb	$1, %r9b
	cmpb	$0, %r9b
	je	LBB84_3
Ltmp693:
	.loc	4 39 3
	movq	32(%rsp), %rax
	shlq	$0, %rax
	movq	(%rsp), %rdi
	movq	16(%rsp), %rsi
	movq	%rax, %rdx
	callq	_memmove
Ltmp694:
LBB84_3:
	.loc	4 41 2
	movq	32(%rsp), %rax
	addq	$72, %rsp
	retq
Ltmp695:
Lfunc_end84:
	.cfi_endproc

	.p2align	4, 0x90
"_runtime.make_slice-11498":
Lfunc_begin85:
	.loc	4 281 0
	.cfi_startproc
	subq	$152, %rsp
	.cfi_def_cfa_offset 160
	movq	%rdi, %rax
	leaq	160(%rsp), %r9
Ltmp696:
	movq	%r8, 88(%rsp)
Ltmp697:
	movq	%rsi, 80(%rsp)
Ltmp698:
	movq	%rdi, 72(%rsp)
	movq	%rcx, 64(%rsp)
	movq	%rdx, 56(%rsp)
	movq	%rax, 48(%rsp)
	movq	%r9, 40(%rsp)
Ltmp699:
	movq	80(%rsp), %rax
	movq	%rax, 144(%rsp)
	movq	64(%rsp), %rcx
	movq	%rcx, 136(%rsp)
	movq	56(%rsp), %rdx
	movq	%rdx, 128(%rsp)
	movq	128(%rsp), %rcx
	movq	136(%rsp), %r8
Ltmp700:
	.loc	4 282 2 prologue_end
	xorps	%xmm0, %xmm0
	movaps	%xmm0, 96(%rsp)
	movq	$0, 112(%rsp)
	movq	40(%rsp), %rsi
	movq	32(%rsi), %rdi
	movq	%rsp, %r9
	movq	%rdi, 32(%r9)
	movq	24(%rsi), %rdi
	movq	%rdi, 24(%r9)
	movq	16(%rsi), %rdi
	movq	%rdi, 16(%r9)
	movq	(%rsi), %rdi
	movq	8(%rsi), %r10
	movq	%r10, 8(%r9)
	movq	%rdi, (%r9)
	leaq	96(%rsp), %rdi
	movl	$1, %edx
	movq	%rax, %rsi
	movq	88(%rsp), %r9
	callq	"_runtime.make_aligned-20725"
	movb	112(%rsp), %r11b
	movq	96(%rsp), %rax
	movq	104(%rsp), %rcx
	movq	72(%rsp), %rdx
	movq	%rcx, 8(%rdx)
	movq	%rax, (%rdx)
	movb	%r11b, 16(%rdx)
	movq	48(%rsp), %rax
	addq	$152, %rsp
	retq
Ltmp701:
Lfunc_end85:
	.cfi_endproc

	.p2align	4, 0x90
"_runtime.copy_from_string-12399":
Lfunc_begin86:
	.loc	4 49 0
	.cfi_startproc
	subq	$72, %rsp
	.cfi_def_cfa_offset 80
	movq	%rcx, 24(%rsp)
	movq	%rdx, 16(%rsp)
Ltmp702:
	movq	%rsi, 8(%rsp)
	movq	%rdi, (%rsp)
Ltmp703:
	xorl	%eax, %eax
	movl	%eax, %ecx
	movq	(%rsp), %rdx
	movq	%rdx, 56(%rsp)
	movq	8(%rsp), %rsi
	movq	%rsi, 64(%rsp)
	movq	24(%rsp), %rdi
	movq	%rdi, 48(%rsp)
	movq	16(%rsp), %r8
	movq	%r8, 40(%rsp)
Ltmp704:
	.loc	4 50 2 prologue_end
	cmpq	%rdi, %rsi
	cmovlq	%rsi, %rdi
	cmpq	%rdi, %rcx
	cmovgq	%rcx, %rdi
	movq	%rdi, 32(%rsp)
	.loc	4 51 2
	cmpq	$0, 32(%rsp)
	setg	%r9b
	andb	$1, %r9b
	cmpb	$0, %r9b
	je	LBB86_3
Ltmp705:
	.loc	4 52 3
	movq	32(%rsp), %rdx
	movq	(%rsp), %rdi
	movq	16(%rsp), %rsi
	callq	_memmove
Ltmp706:
LBB86_3:
	.loc	4 54 2
	movq	32(%rsp), %rax
	addq	$72, %rsp
	retq
Ltmp707:
Lfunc_end86:
	.cfi_endproc

	.p2align	4, 0x90
"_runtime.alloc_from_memory_block.calc_alignment_offset-0":
Lfunc_begin87:
	.loc	2 59 0
	.cfi_startproc
	movq	%rdi, -56(%rsp)
Ltmp708:
	movq	%rsi, -64(%rsp)
Ltmp709:
	movq	-56(%rsp), %rax
	movq	%rax, -8(%rsp)
	movq	-64(%rsp), %rcx
	movq	%rcx, -16(%rsp)
Ltmp710:
	.loc	2 60 3 prologue_end
	movq	$0, -24(%rsp)
	.loc	2 61 3
	movq	-8(%rsp), %rdx
	movq	32(%rdx), %rdx
	movq	-8(%rsp), %rsi
	addq	24(%rsi), %rdx
	movq	%rdx, -32(%rsp)
	movq	-32(%rsp), %rdx
	movq	%rdx, -40(%rsp)
	.loc	2 62 3
	subq	$1, %rcx
	movq	%rcx, -48(%rsp)
	.loc	2 63 3
	movq	-40(%rsp), %rcx
	andq	-48(%rsp), %rcx
	cmpq	$0, %rcx
	setne	%dil
	andb	$1, %dil
	cmpb	$0, %dil
	je	LBB87_3
Ltmp711:
	.loc	2 64 21
	movq	-40(%rsp), %rax
	andq	-48(%rsp), %rax
	movq	-64(%rsp), %rcx
	subq	%rax, %rcx
	movq	%rcx, -24(%rsp)
Ltmp712:
LBB87_3:
	.loc	2 66 3
	movq	-24(%rsp), %rax
	retq
Ltmp713:
Lfunc_end87:
	.cfi_endproc

	.p2align	4, 0x90
"_runtime.arena_alloc.align_forward_uint-0":
Lfunc_begin88:
	.loc	2 90 0
	.cfi_startproc
	movq	%rdi, -40(%rsp)
Ltmp714:
	movq	%rsi, -48(%rsp)
Ltmp715:
	movq	-40(%rsp), %rax
	movq	%rax, -8(%rsp)
	movq	-48(%rsp), %rcx
	movq	%rcx, -16(%rsp)
Ltmp716:
	.loc	2 91 3 prologue_end
	movq	%rax, -24(%rsp)
	.loc	2 92 3
	movq	-24(%rsp), %rdx
	subq	$1, %rcx
	andq	%rcx, %rdx
	movq	%rdx, -32(%rsp)
	.loc	2 93 3
	cmpq	$0, -32(%rsp)
	setne	%sil
	andb	$1, %sil
	cmpb	$0, %sil
	je	LBB88_3
Ltmp717:
	.loc	2 0 3 is_stmt 0
	movq	-48(%rsp), %rax
Ltmp718:
	.loc	2 94 6 is_stmt 1
	subq	-32(%rsp), %rax
	addq	-24(%rsp), %rax
	movq	%rax, -24(%rsp)
Ltmp719:
LBB88_3:
	.loc	2 96 3
	movq	-24(%rsp), %rax
	retq
Ltmp720:
Lfunc_end88:
	.cfi_endproc

	.p2align	4, 0x90
"_runtime.assert.internal-0":
Lfunc_begin89:
	.loc	4 807 0
	.cfi_startproc
	subq	$104, %rsp
	.cfi_def_cfa_offset 112
	leaq	112(%rsp), %rax
Ltmp721:
	movq	%rdx, 72(%rsp)
Ltmp722:
	movq	%rsi, 64(%rsp)
	movq	%rdi, 56(%rsp)
Ltmp723:
	movq	%rax, 48(%rsp)
Ltmp724:
	movq	56(%rsp), %rax
	movq	%rax, 88(%rsp)
	movq	64(%rsp), %rcx
	movq	%rcx, 96(%rsp)
	movq	72(%rsp), %rdx
	movq	72(%rsp), %rsi
Ltmp725:
	.loc	4 808 4 prologue_end
	movq	32(%rsi), %rdi
	movq	%rdi, 80(%rsp)
	.loc	4 809 4
	cmpq	$0, 80(%rsp)
	sete	%r8b
	andb	$1, %r8b
	cmpb	$0, %r8b
	movq	%rdx, 40(%rsp)
	je	LBB89_3
Ltmp726:
	.loc	4 0 4 is_stmt 0
	leaq	_runtime.default_assertion_failure_proc(%rip), %rax
Ltmp727:
	.loc	4 810 7 is_stmt 1
	movq	%rax, 80(%rsp)
Ltmp728:
LBB89_3:
	.loc	4 812 4
	movq	80(%rsp), %rax
	movq	48(%rsp), %rcx
	movq	32(%rcx), %rdx
	movq	%rsp, %rsi
	movq	%rdx, 32(%rsi)
	movq	24(%rcx), %rdx
	movq	%rdx, 24(%rsi)
	movq	16(%rcx), %rdx
	movq	%rdx, 16(%rsi)
	movq	(%rcx), %rdx
	movq	8(%rcx), %rdi
	movq	%rdi, 8(%rsi)
	movq	%rdx, (%rsi)
	leaq	L_csbs$9a(%rip), %rdi
	movl	$17, %esi
	movq	56(%rsp), %rdx
	movq	64(%rsp), %rcx
	movq	40(%rsp), %r8
	callq	*%rax
	ud2
Ltmp729:
Lfunc_end89:
	.cfi_endproc

	.p2align	4, 0x90
"_os.heap_allocator_proc.aligned_alloc-0":
Lfunc_begin90:
	.loc	18 181 0
	.cfi_startproc
	subq	$184, %rsp
	.cfi_def_cfa_offset 192
	movq	%rdi, %rax
Ltmp730:
	movq	%r9, 80(%rsp)
Ltmp731:
	movq	%rcx, 72(%rsp)
Ltmp732:
	movq	%rdx, 64(%rsp)
Ltmp733:
	movq	%rsi, 56(%rsp)
Ltmp734:
	movq	%rdi, 48(%rsp)
	movb	%r8b, 47(%rsp)
	movq	%rax, 32(%rsp)
Ltmp735:
	movq	56(%rsp), %rax
	movq	%rax, 176(%rsp)
	movq	64(%rsp), %rcx
	movq	%rcx, 168(%rsp)
	movq	72(%rsp), %rdx
	movq	%rdx, 160(%rsp)
	movb	47(%rsp), %sil
	andb	$1, %sil
	movb	%sil, 159(%rsp)
Ltmp736:
	movq	80(%rsp), %rdi
Ltmp737:
	.loc	18 182 3 prologue_end
	cmpq	$8, %rcx
	movl	$8, %r8d
	cmovgq	%rcx, %r8
	movq	%r8, 144(%rsp)
	.loc	18 183 3
	addq	144(%rsp), %rax
	subq	$1, %rax
	movq	%rax, 136(%rsp)
	.loc	18 185 3
	movq	$0, 128(%rsp)
	.loc	18 186 3
	cmpq	$0, %rdx
	setne	%r9b
	andb	$1, %r9b
	cmpb	$0, %r9b
	movb	%sil, 31(%rsp)
Ltmp738:
	.loc	18 0 3 is_stmt 0
	movq	%rdi, 16(%rsp)
	.loc	18 186 3
	je	LBB90_3
Ltmp739:
	.loc	18 0 3
	movq	72(%rsp), %rax
Ltmp740:
	.loc	18 187 4 is_stmt 1
	movq	-8(%rax), %rcx
	movq	%rcx, 120(%rsp)
	.loc	18 188 18
	movq	120(%rsp), %rdi
	movq	136(%rsp), %rcx
	addq	$8, %rcx
	movq	16(%rsp), %rdx
	movq	%rcx, %rsi
	callq	_os.heap_resize
	movq	%rax, 128(%rsp)
	jmp	LBB90_4
Ltmp741:
LBB90_3:
	.loc	18 190 18
	movq	136(%rsp), %rax
	addq	$8, %rax
	movb	31(%rsp), %cl
	cmpb	$0, %cl
	setne	%dl
	movq	16(%rsp), %rsi
	movzbl	%dl, %edi
	andl	$1, %edi
	movl	%edi, 12(%rsp)
	movq	%rax, %rdi
	movl	12(%rsp), %r8d
	movq	%rsi, (%rsp)
	movl	%r8d, %esi
	movq	(%rsp), %rdx
	callq	_os.heap_alloc
	movq	%rax, 128(%rsp)
Ltmp742:
LBB90_4:
	.loc	18 0 18 is_stmt 0
	xorl	%eax, %eax
	movl	%eax, %ecx
	.loc	18 192 3 is_stmt 1
	movq	128(%rsp), %rdx
	addq	$8, %rdx
	movq	%rdx, 112(%rsp)
	.loc	18 194 3
	movq	112(%rsp), %rdx
	movq	%rdx, 104(%rsp)
	.loc	18 195 3
	movq	104(%rsp), %rdx
	subq	$1, %rdx
	addq	144(%rsp), %rdx
	subq	144(%rsp), %rcx
	andq	%rcx, %rdx
	movq	%rdx, 96(%rsp)
	.loc	18 196 3
	movq	96(%rsp), %rcx
	subq	104(%rsp), %rcx
	movq	%rcx, 88(%rsp)
	movq	56(%rsp), %rcx
	.loc	18 197 3
	addq	88(%rsp), %rcx
	cmpq	136(%rsp), %rcx
	setg	%sil
	andb	$1, %sil
	cmpb	$0, %sil
	jne	LBB90_6
Ltmp743:
	cmpq	$0, 128(%rsp)
	sete	%al
	andb	$1, %al
	cmpb	$0, %al
	je	LBB90_7
Ltmp744:
LBB90_6:
	.loc	18 0 3 is_stmt 0
	movq	48(%rsp), %rax
Ltmp745:
	.loc	18 198 4 is_stmt 1
	movq	$0, 8(%rax)
	movq	$0, (%rax)
	movb	$1, 16(%rax)
	movq	32(%rsp), %rax
	addq	$184, %rsp
	retq
Ltmp746:
LBB90_7:
	.loc	18 201 15
	movq	96(%rsp), %rax
	movq	%rax, 112(%rsp)
	.loc	18 202 47
	movq	112(%rsp), %rax
	movq	128(%rsp), %rcx
	movq	%rcx, -8(%rax)
	.loc	18 204 3
	movq	112(%rsp), %rdi
	movq	56(%rsp), %rsi
	callq	_mem.byte_slice
	movq	48(%rsp), %rcx
	movq	%rdx, 8(%rcx)
	movq	%rax, (%rcx)
	movb	$0, 16(%rcx)
	movq	32(%rsp), %rax
	addq	$184, %rsp
	retq
Ltmp747:
Lfunc_end90:
	.cfi_endproc

	.p2align	4, 0x90
"_os.heap_allocator_proc.aligned_free-1":
Lfunc_begin91:
	.loc	18 207 0
	.cfi_startproc
	subq	$40, %rsp
	.cfi_def_cfa_offset 48
Ltmp748:
	movq	%rdi, 24(%rsp)
Ltmp749:
	movq	%rsi, 16(%rsp)
Ltmp750:
	movq	24(%rsp), %rax
	movq	%rax, 32(%rsp)
	movq	16(%rsp), %rcx
Ltmp751:
	.loc	18 208 3 prologue_end
	cmpq	$0, %rax
	setne	%dl
	andb	$1, %dl
	cmpb	$0, %dl
	movq	%rcx, 8(%rsp)
	je	LBB91_3
Ltmp752:
	.loc	18 0 3 is_stmt 0
	movq	24(%rsp), %rax
Ltmp753:
	.loc	18 209 4 is_stmt 1
	movq	-8(%rax), %rdi
	movq	8(%rsp), %rcx
	movq	%rcx, %rsi
	callq	_os.heap_free
Ltmp754:
LBB91_3:
	.loc	18 211 2
	addq	$40, %rsp
	retq
Ltmp755:
Lfunc_end91:
	.cfi_endproc

	.p2align	4, 0x90
"_os.heap_allocator_proc.aligned_resize-2":
Lfunc_begin92:
	.loc	18 213 0
	.cfi_startproc
	subq	$216, %rsp
	.cfi_def_cfa_offset 224
	movq	%rdi, %rax
Ltmp756:
	movq	%r9, 96(%rsp)
Ltmp757:
	movq	%r8, 88(%rsp)
Ltmp758:
	movq	%rcx, 80(%rsp)
Ltmp759:
	movq	%rdx, 72(%rsp)
Ltmp760:
	movq	%rsi, 64(%rsp)
Ltmp761:
	movq	%rdi, 56(%rsp)
	movq	%rax, 48(%rsp)
Ltmp762:
	xorl	%esi, %esi
	movq	64(%rsp), %rax
	movq	%rax, 208(%rsp)
	movq	72(%rsp), %rcx
	movq	%rcx, 200(%rsp)
	movq	80(%rsp), %rdx
	movq	%rdx, 192(%rsp)
	movq	88(%rsp), %rdi
	movq	%rdi, 184(%rsp)
	leaq	168(%rsp), %r8
Ltmp763:
	movq	%r8, %rdi
	movl	$16, %edx
	callq	_memset
Ltmp764:
	movb	$0, 167(%rsp)
	movq	96(%rsp), %rax
	movq	64(%rsp), %rcx
Ltmp765:
	.loc	18 214 3 prologue_end
	cmpq	$0, %rcx
	sete	%r9b
	andb	$1, %r9b
	cmpb	$0, %r9b
	movq	%rax, 40(%rsp)
	je	LBB92_3
Ltmp766:
	.loc	18 215 4
	movq	$0, 176(%rsp)
	movq	$0, 168(%rsp)
	movb	$0, 167(%rsp)
	movq	56(%rsp), %rax
	movq	$0, 8(%rax)
	movq	$0, (%rax)
	movb	$0, 16(%rax)
	movq	48(%rsp), %rax
	addq	$216, %rsp
	retq
Ltmp767:
LBB92_3:
	.loc	18 218 14
	xorps	%xmm0, %xmm0
	movaps	%xmm0, 128(%rsp)
	movq	$0, 144(%rsp)
	leaq	128(%rsp), %rdi
	movl	$1, %r8d
	movq	80(%rsp), %rsi
	movq	88(%rsp), %rdx
	movq	64(%rsp), %rcx
	movq	40(%rsp), %r9
	callq	"_os.heap_allocator_proc.aligned_alloc-0"
	movq	128(%rsp), %rax
	movq	136(%rsp), %rcx
	movb	144(%rsp), %r10b
	cmpb	$0, %r10b
	movq	%rax, 32(%rsp)
	movq	%rcx, 24(%rsp)
	movb	%r10b, 23(%rsp)
	je	LBB92_5
Ltmp768:
	.loc	18 0 14 is_stmt 0
	movb	23(%rsp), %al
	.loc	18 218 14
	movb	%al, 167(%rsp)
	movq	168(%rsp), %rcx
	movq	176(%rsp), %rdx
	movb	167(%rsp), %sil
	movq	%rdx, 176(%rsp)
	movq	%rcx, 168(%rsp)
	movb	%sil, 167(%rsp)
	movq	56(%rsp), %rdi
	movq	%rdx, 8(%rdi)
	movq	%rcx, (%rdi)
	movb	%sil, 16(%rdi)
	movq	48(%rsp), %rax
	addq	$216, %rsp
	retq
Ltmp769:
LBB92_5:
	.loc	18 0 14
	movq	32(%rsp), %rax
	.loc	18 218 14
	movq	%rax, 168(%rsp)
	movq	24(%rsp), %rcx
	movq	%rcx, 176(%rsp)
	movq	80(%rsp), %rdx
	movq	72(%rsp), %rsi
	.loc	18 221 3 is_stmt 1
	cmpq	%rsi, %rdx
	setg	%dil
	andb	$1, %dil
	cmpb	$0, %dil
	je	LBB92_7
Ltmp770:
	.loc	18 222 4
	movq	176(%rsp), %rax
	movq	%rsp, %rcx
	movq	%rax, (%rcx)
	leaq	L_csbs$9b(%rip), %rdi
	movl	$42, %esi
	movl	$222, %edx
	movl	$41, %ecx
	movq	72(%rsp), %r8
	movq	%rax, %r9
	movq	%rax, 8(%rsp)
	callq	_runtime.slice_expr_error_lo_hi
	movq	72(%rsp), %rax
	addq	168(%rsp), %rax
	movq	8(%rsp), %rsi
	movq	72(%rsp), %rdi
	subq	%rdi, %rsi
	movq	%rax, 112(%rsp)
	movq	%rsi, 120(%rsp)
	movq	112(%rsp), %rax
	movq	%rax, 104(%rsp)
	.loc	18 223 4
	movq	104(%rsp), %rdi
	movq	80(%rsp), %rax
	movq	72(%rsp), %rsi
	subq	%rsi, %rax
	movq	%rax, %rsi
	callq	_mem.zero
Ltmp771:
LBB92_7:
	.loc	18 225 3
	movq	168(%rsp), %rax
	movq	176(%rsp), %rcx
	movb	167(%rsp), %dl
	movq	%rcx, 176(%rsp)
	movq	%rax, 168(%rsp)
	movb	%dl, 167(%rsp)
	movq	56(%rsp), %rsi
	movq	%rcx, 8(%rsi)
	movq	%rax, (%rsi)
	movb	%dl, 16(%rsi)
	movq	48(%rsp), %rax
	addq	$216, %rsp
	retq
Ltmp772:
Lfunc_end92:
	.cfi_endproc

	.p2align	4, 0x90
"_runtime.make_aligned-20725":
Lfunc_begin93:
	.loc	4 266 0
	.cfi_startproc
	subq	$232, %rsp
	.cfi_def_cfa_offset 240
	movq	%rdi, %rax
	leaq	240(%rsp), %r10
Ltmp773:
	movq	%r9, 104(%rsp)
Ltmp774:
	movq	%rdx, 96(%rsp)
Ltmp775:
	movq	%rsi, 88(%rsp)
Ltmp776:
	movq	%rdi, 80(%rsp)
	movq	%r8, 72(%rsp)
	movq	%rcx, 64(%rsp)
	movq	%rax, 56(%rsp)
	movq	%r10, 48(%rsp)
Ltmp777:
	movq	88(%rsp), %rax
	movq	%rax, 224(%rsp)
	movq	96(%rsp), %rcx
	movq	%rcx, 216(%rsp)
	movq	72(%rsp), %rdx
	movq	%rdx, 208(%rsp)
	movq	64(%rsp), %rsi
	movq	%rsi, 200(%rsp)
Ltmp778:
	movq	48(%rsp), %rdi
Ltmp779:
	.loc	4 267 2 prologue_end
	movq	32(%rdi), %r8
	movq	%rsp, %r9
	movq	%r8, 32(%r9)
	movq	24(%rdi), %r8
	movq	%r8, 24(%r9)
	movq	16(%rdi), %r8
	movq	%r8, 16(%r9)
	movq	(%rdi), %r8
	movq	8(%rdi), %r10
	movq	%r10, 8(%r9)
	movq	%r8, (%r9)
	movq	%rax, %rdi
	callq	_runtime.make_slice_error_loc
	.loc	4 268 2
	movq	200(%rsp), %rcx
	movq	208(%rsp), %r8
	xorps	%xmm0, %xmm0
	movaps	%xmm0, 176(%rsp)
	movq	$0, 192(%rsp)
	movq	48(%rsp), %rax
	movq	32(%rax), %rdx
	movq	%rsp, %rsi
	movq	%rdx, 32(%rsi)
	movq	24(%rax), %rdx
	movq	%rdx, 24(%rsi)
	movq	16(%rax), %rdx
	movq	%rdx, 16(%rsi)
	movq	(%rax), %rdx
	movq	8(%rax), %rdi
	movq	%rdi, 8(%rsi)
	movq	%rdx, (%rsi)
	leaq	176(%rsp), %rdi
	movq	88(%rsp), %rsi
	movq	96(%rsp), %rdx
	movq	104(%rsp), %r9
	callq	_runtime.mem_alloc_bytes
	movb	192(%rsp), %r11b
	movq	176(%rsp), %rax
	movq	184(%rsp), %rcx
	movq	%rcx, 168(%rsp)
	movq	%rax, 160(%rsp)
	movb	%r11b, 159(%rsp)
	.loc	4 269 2
	cmpq	$0, 160(%rsp)
	sete	%r11b
	andb	$1, %r11b
	cmpb	$0, %r11b
	je	LBB93_4
Ltmp780:
	movb	$1, %al
	testb	$1, %al
	jne	LBB93_3
	jmp	LBB93_4
Ltmp781:
LBB93_3:
	.loc	4 270 3
	movb	159(%rsp), %al
	movq	80(%rsp), %rcx
	movq	$0, 8(%rcx)
	movq	$0, (%rcx)
	movb	%al, 16(%rcx)
	movq	56(%rsp), %rax
	addq	$232, %rsp
	retq
Ltmp782:
LBB93_4:
	.loc	4 272 2
	xorps	%xmm0, %xmm0
	movaps	%xmm0, 128(%rsp)
	movq	$0, 136(%rsp)
	movq	$0, 128(%rsp)
	movq	160(%rsp), %rax
	movq	%rax, 128(%rsp)
	movq	88(%rsp), %rax
	movq	%rax, 136(%rsp)
	movq	128(%rsp), %rcx
	movq	136(%rsp), %rdx
	movq	%rdx, 120(%rsp)
	movq	%rcx, 112(%rsp)
	.loc	4 273 2
	movq	112(%rsp), %rcx
	movq	120(%rsp), %rdx
	movb	159(%rsp), %sil
	movq	80(%rsp), %rdi
	movq	%rdx, 8(%rdi)
	movq	%rcx, (%rdi)
	movb	%sil, 16(%rdi)
	movq	56(%rsp), %rax
	addq	$232, %rsp
	retq
Ltmp783:
Lfunc_end93:
	.cfi_endproc

	.p2align	4, 0x90
_runtime.make_slice_error_loc:
Lfunc_begin94:
	.loc	13 223 0
	.cfi_startproc
	subq	$72, %rsp
	.cfi_def_cfa_offset 80
	leaq	80(%rsp), %rax
Ltmp784:
	movq	%rdi, 56(%rsp)
Ltmp785:
	movq	%rax, 48(%rsp)
Ltmp786:
	xorl	%eax, %eax
	movl	%eax, %ecx
	movq	56(%rsp), %rdx
	movq	%rdx, 64(%rsp)
Ltmp787:
	.loc	13 224 2 prologue_end
	cmpq	%rdx, %rcx
	setle	%sil
	andb	$1, %sil
	cmpb	$0, %sil
	je	LBB94_3
Ltmp788:
	.loc	13 225 3
	addq	$72, %rsp
	retq
Ltmp789:
LBB94_3:
	.loc	13 0 3 is_stmt 0
	movq	48(%rsp), %rax
	.loc	13 235 2 is_stmt 1
	movq	32(%rax), %rcx
	movq	%rsp, %rdx
	movq	%rcx, 32(%rdx)
	movq	24(%rax), %rcx
	movq	%rcx, 24(%rdx)
	movq	16(%rax), %rcx
	movq	%rcx, 16(%rdx)
	movq	(%rax), %rcx
	movq	8(%rax), %rsi
	movq	%rsi, 8(%rdx)
	movq	%rcx, (%rdx)
	movq	56(%rsp), %rdi
	callq	"_runtime.handle_error-10704"
Ltmp790:
	.loc	13 236 1
	addq	$72, %rsp
	retq
Ltmp791:
Lfunc_end94:
	.cfi_endproc

	.p2align	4, 0x90
_runtime.mem_alloc_bytes:
Lfunc_begin95:
	.loc	12 131 0
	.cfi_startproc
	subq	$200, %rsp
	.cfi_def_cfa_offset 208
	movq	%rdi, %rax
	leaq	208(%rsp), %r10
Ltmp792:
	movq	%r9, 136(%rsp)
Ltmp793:
	movq	%rdx, 128(%rsp)
Ltmp794:
	movq	%rsi, 120(%rsp)
Ltmp795:
	movq	%rdi, 112(%rsp)
	movq	%r8, 104(%rsp)
	movq	%rcx, 96(%rsp)
	movq	%rax, 88(%rsp)
	movq	%r10, 80(%rsp)
Ltmp796:
	movq	120(%rsp), %rax
	movq	%rax, 192(%rsp)
	movq	128(%rsp), %rcx
	movq	%rcx, 184(%rsp)
	movq	104(%rsp), %rdx
	movq	%rdx, 176(%rsp)
	movq	96(%rsp), %rsi
	movq	%rsi, 168(%rsp)
	movq	136(%rsp), %rdi
Ltmp797:
	.loc	12 132 2 prologue_end
	cmpq	$0, %rax
	sete	%r8b
	andb	$1, %r8b
	cmpb	$0, %r8b
	movq	%rdi, 72(%rsp)
	je	LBB95_3
Ltmp798:
	.loc	12 0 2 is_stmt 0
	movq	112(%rsp), %rax
Ltmp799:
	.loc	12 133 3 is_stmt 1
	movq	$0, 8(%rax)
	movq	$0, (%rax)
	movb	$0, 16(%rax)
	movq	88(%rsp), %rax
	addq	$200, %rsp
	retq
Ltmp800:
LBB95_3:
	.loc	12 135 2
	cmpq	$0, 168(%rsp)
	sete	%al
	andb	$1, %al
	cmpb	$0, %al
	je	LBB95_5
Ltmp801:
	.loc	12 0 2 is_stmt 0
	movq	112(%rsp), %rax
Ltmp802:
	.loc	12 136 3 is_stmt 1
	movq	$0, 8(%rax)
	movq	$0, (%rax)
	movb	$0, 16(%rax)
	movq	88(%rsp), %rax
	addq	$200, %rsp
	retq
Ltmp803:
LBB95_5:
	.loc	12 138 2
	movq	168(%rsp), %rax
	movq	176(%rsp), %rsi
	xorps	%xmm0, %xmm0
	movaps	%xmm0, 144(%rsp)
	movq	$0, 160(%rsp)
	movq	80(%rsp), %rcx
	movq	32(%rcx), %rdx
	movq	%rsp, %rdi
	movq	%rdx, 40(%rdi)
	movq	24(%rcx), %rdx
	movq	%rdx, 32(%rdi)
	movq	16(%rcx), %rdx
	movq	%rdx, 24(%rdi)
	movq	(%rcx), %rdx
	movq	8(%rcx), %r8
	movq	%r8, 16(%rdi)
	movq	%rdx, 8(%rdi)
	movq	72(%rsp), %rdx
	movq	%rdx, 48(%rdi)
	movq	$0, (%rdi)
	xorl	%r9d, %r9d
	movl	%r9d, %edi
	leaq	144(%rsp), %r8
	movq	%rdi, 64(%rsp)
	movq	%r8, %rdi
	movl	%r9d, %edx
	movq	120(%rsp), %rcx
	movq	128(%rsp), %r8
	movq	64(%rsp), %r9
	callq	*%rax
	movb	160(%rsp), %r10b
	movq	144(%rsp), %rax
	movq	152(%rsp), %rcx
	movq	112(%rsp), %rsi
	movq	%rcx, 8(%rsi)
	movq	%rax, (%rsi)
	movb	%r10b, 16(%rsi)
	movq	88(%rsp), %rax
	addq	$200, %rsp
	retq
Ltmp804:
Lfunc_end95:
	.cfi_endproc

	.p2align	4, 0x90
"_runtime.handle_error-10704":
Lfunc_begin96:
	.loc	13 228 0
	.cfi_startproc
	subq	$88, %rsp
	.cfi_def_cfa_offset 96
	leaq	96(%rsp), %rax
Ltmp805:
	movq	%rdi, 72(%rsp)
Ltmp806:
	movq	%rax, 64(%rsp)
Ltmp807:
	movq	72(%rsp), %rax
	movq	%rax, 80(%rsp)
	movq	64(%rsp), %rcx
Ltmp808:
	.loc	13 229 3 prologue_end
	movq	32(%rcx), %rdx
	movq	%rsp, %rsi
	movq	%rdx, 32(%rsi)
	movq	24(%rcx), %rdx
	movq	%rdx, 24(%rsi)
	movq	16(%rcx), %rdx
	movq	%rdx, 16(%rsi)
	movq	(%rcx), %rdx
	movq	8(%rcx), %rdi
	movq	%rdi, 8(%rsi)
	movq	%rdx, (%rsi)
	callq	_runtime.print_caller_location
	.loc	13 230 3
	leaq	L_csbs$9c(%rip), %rdi
	movl	$32, %esi
	callq	_runtime.print_string
	movq	72(%rsp), %rdi
	movq	%rax, 56(%rsp)
	.loc	13 231 3
	callq	_runtime.print_i64
	movl	$10, %edi
	.loc	13 232 3
	callq	_runtime.print_byte
	movq	%rax, 48(%rsp)
	.loc	13 233 3
	callq	_runtime.bounds_trap
Ltmp809:
Lfunc_end96:
	.cfi_endproc

.zerofill __DATA,__bss,___$type_info_data,16480,4
.zerofill __DATA,__bss,___$type_info_types_data,952,4
.zerofill __DATA,__bss,___$type_info_names_data,1904,4
.zerofill __DATA,__bss,___$type_info_offsets_data,952,4
.zerofill __DATA,__bss,___$type_info_usings_data,119,4
.zerofill __DATA,__bss,___$type_info_tags_data,1904,4
	.section	__DATA,__data
	.p2align	3
_runtime.type_table:
	.quad	___$type_info_data
	.quad	103

.zerofill __DATA,__bss,_runtime.args__,16,3
.tbss _runtime.global_default_temp_allocator_data$tlv$init, 56, 4

	.section	__DATA,__thread_vars,thread_local_variables
_runtime.global_default_temp_allocator_data:
	.quad	__tlv_bootstrap
	.quad	0
	.quad	_runtime.global_default_temp_allocator_data$tlv$init

.zerofill __DATA,__bss,_odinasm.p2,8,3
.zerofill __DATA,__bss,_odinasm.i,8,3
	.section	__DATA,__data
	.p2align	2
_os.stderr:
	.long	2

	.p2align	3
"_runtime._INTEGER_DIGITS_VAR-529":
	.quad	L_csbs$0
	.quad	36

	.section	__TEXT,__cstring,cstring_literals
L_csbs$0:
	.asciz	"0123456789abcdefghijklmnopqrstuvwxyz"

L_csbs$1:
	.asciz	"runtime"

L_csbs$2:
	.asciz	"/Users/tarvydas/tools/Odin/core/runtime/core.odin"

L_csbs$3:
	.asciz	"Type_Info"

	.section	__DATA,__const
	.p2align	4
l_ggv$0:
	.quad	L_csbs$3
	.quad	9
	.quad	___$type_info_data+800
	.quad	L_csbs$1
	.quad	7
	.quad	L_csbs$2
	.quad	49
	.long	190
	.long	1
	.space	16

	.section	__TEXT,__cstring,cstring_literals
L_csbs$4:
	.asciz	"size"

L_csbs$5:
	.asciz	"align"

L_csbs$6:
	.asciz	"flags"

L_csbs$7:
	.asciz	"id"

L_csbs$8:
	.asciz	"variant"

	.section	__DATA,__const
	.p2align	4
l_ggv$1:
	.quad	___$type_info_types_data
	.quad	5
	.quad	___$type_info_names_data
	.quad	5
	.quad	___$type_info_offsets_data
	.quad	5
	.quad	___$type_info_usings_data
	.quad	5
	.quad	___$type_info_tags_data
	.quad	5
	.byte	0
	.byte	0
	.byte	0
	.byte	0
	.space	4
	.quad	0
	.byte	0
	.space	7
	.quad	0
	.quad	0

	.section	__TEXT,__cstring,cstring_literals
L_csbs$9:
	.asciz	"Type_Info_Flags"

	.section	__DATA,__const
	.p2align	4
l_ggv$2:
	.quad	L_csbs$9
	.quad	15
	.quad	___$type_info_data+1120
	.quad	L_csbs$1
	.quad	7
	.quad	L_csbs$2
	.quad	49
	.long	188
	.long	1
	.space	16

	.section	__TEXT,__cstring,cstring_literals
L_csbs$a:
	.asciz	"Type_Info_Flag"

	.section	__DATA,__const
	.p2align	4
l_ggv$3:
	.quad	L_csbs$a
	.quad	14
	.quad	___$type_info_data+1440
	.quad	L_csbs$1
	.quad	7
	.quad	L_csbs$2
	.quad	49
	.long	184
	.long	1
	.space	16

	.p2align	4
"l_$enum_names-9":
	.quad	L_csbs$b
	.quad	10
	.quad	L_csbs$c
	.quad	14

	.section	__TEXT,__literal16,16byte_literals
	.p2align	3
"L_$enum_values-9":
	.quad	0
	.quad	1

	.section	__TEXT,__cstring,cstring_literals
L_csbs$b:
	.asciz	"Comparable"

L_csbs$c:
	.asciz	"Simple_Compare"

L_csbs$d:
	.asciz	"Type_Info_Named"

	.section	__DATA,__const
	.p2align	4
l_ggv$4:
	.quad	L_csbs$d
	.quad	15
	.quad	___$type_info_data+2560
	.quad	L_csbs$1
	.quad	7
	.quad	L_csbs$2
	.quad	49
	.long	64
	.long	1
	.space	16

	.section	__TEXT,__cstring,cstring_literals
L_csbs$e:
	.asciz	"name"

L_csbs$f:
	.asciz	"base"

L_csbs$10:
	.asciz	"pkg"

L_csbs$11:
	.asciz	"loc"

	.section	__DATA,__const
	.p2align	4
l_ggv$5:
	.quad	___$type_info_types_data+264
	.quad	4
	.quad	___$type_info_names_data+80
	.quad	4
	.quad	___$type_info_offsets_data+40
	.quad	4
	.quad	___$type_info_usings_data+5
	.quad	4
	.quad	___$type_info_tags_data+80
	.quad	4
	.byte	0
	.byte	0
	.byte	0
	.byte	0
	.space	4
	.quad	___$equal1
	.byte	0
	.space	7
	.quad	0
	.quad	0

	.section	__TEXT,__cstring,cstring_literals
L_csbs$12:
	.asciz	"Source_Code_Location"

	.section	__DATA,__const
	.p2align	4
l_ggv$6:
	.quad	L_csbs$12
	.quad	20
	.quad	___$type_info_data+3200
	.quad	L_csbs$1
	.quad	7
	.quad	L_csbs$2
	.quad	49
	.long	291
	.long	1
	.space	16

	.section	__TEXT,__cstring,cstring_literals
L_csbs$13:
	.asciz	"file_path"

L_csbs$14:
	.asciz	"line"

L_csbs$15:
	.asciz	"column"

L_csbs$16:
	.asciz	"procedure"

	.section	__DATA,__const
	.p2align	4
l_ggv$7:
	.quad	___$type_info_types_data+296
	.quad	4
	.quad	___$type_info_names_data+144
	.quad	4
	.quad	___$type_info_offsets_data+72
	.quad	4
	.quad	___$type_info_usings_data+9
	.quad	4
	.quad	___$type_info_tags_data+144
	.quad	4
	.byte	0
	.byte	0
	.byte	0
	.byte	0
	.space	4
	.quad	___$equal2
	.byte	0
	.space	7
	.quad	0
	.quad	0

	.section	__TEXT,__cstring,cstring_literals
L_csbs$17:
	.asciz	"Type_Info_Integer"

	.section	__DATA,__const
	.p2align	4
l_ggv$8:
	.quad	L_csbs$17
	.quad	17
	.quad	___$type_info_data+3680
	.quad	L_csbs$1
	.quad	7
	.quad	L_csbs$2
	.quad	49
	.long	70
	.long	1
	.space	16

	.section	__TEXT,__cstring,cstring_literals
L_csbs$18:
	.asciz	"signed"

L_csbs$19:
	.asciz	"endianness"

	.section	__DATA,__const
	.p2align	4
l_ggv$9:
	.quad	___$type_info_types_data+328
	.quad	2
	.quad	___$type_info_names_data+208
	.quad	2
	.quad	___$type_info_offsets_data+104
	.quad	2
	.quad	___$type_info_usings_data+13
	.quad	2
	.quad	___$type_info_tags_data+208
	.quad	2
	.byte	0
	.byte	0
	.byte	0
	.byte	0
	.space	4
	.quad	0
	.byte	0
	.space	7
	.quad	0
	.quad	0

	.section	__TEXT,__cstring,cstring_literals
L_csbs$1a:
	.asciz	"Platform_Endianness"

	.section	__DATA,__const
	.p2align	4
l_ggv$a:
	.quad	L_csbs$1a
	.quad	19
	.quad	___$type_info_data+4160
	.quad	L_csbs$1
	.quad	7
	.quad	L_csbs$2
	.quad	49
	.long	45
	.long	1
	.space	16

	.p2align	4
"l_$enum_names-26":
	.quad	L_csbs$1b
	.quad	8
	.quad	L_csbs$1c
	.quad	6
	.quad	L_csbs$1d
	.quad	3

	.section	__TEXT,__const
	.p2align	4
"l_$enum_values-26":
	.quad	0
	.quad	1
	.quad	2

	.section	__TEXT,__cstring,cstring_literals
L_csbs$1b:
	.asciz	"Platform"

L_csbs$1c:
	.asciz	"Little"

L_csbs$1d:
	.asciz	"Big"

L_csbs$1e:
	.asciz	"Type_Info_Rune"

	.section	__DATA,__const
	.p2align	4
l_ggv$b:
	.quad	L_csbs$1e
	.quad	14
	.quad	___$type_info_data+4480
	.quad	L_csbs$1
	.quad	7
	.quad	L_csbs$2
	.quad	49
	.long	71
	.long	1
	.space	16

	.section	__TEXT,__cstring,cstring_literals
L_csbs$1f:
	.asciz	"Type_Info_Float"

	.section	__DATA,__const
	.p2align	4
l_ggv$c:
	.quad	L_csbs$1f
	.quad	15
	.quad	___$type_info_data+4800
	.quad	L_csbs$1
	.quad	7
	.quad	L_csbs$2
	.quad	49
	.long	72
	.long	1
	.space	16

	.p2align	4
l_ggv$d:
	.quad	___$type_info_types_data+344
	.quad	1
	.quad	___$type_info_names_data+240
	.quad	1
	.quad	___$type_info_offsets_data+120
	.quad	1
	.quad	___$type_info_usings_data+15
	.quad	1
	.quad	___$type_info_tags_data+240
	.quad	1
	.byte	0
	.byte	0
	.byte	0
	.byte	0
	.space	4
	.quad	0
	.byte	0
	.space	7
	.quad	0
	.quad	0

	.section	__TEXT,__cstring,cstring_literals
L_csbs$20:
	.asciz	"Type_Info_Complex"

	.section	__DATA,__const
	.p2align	4
l_ggv$e:
	.quad	L_csbs$20
	.quad	17
	.quad	___$type_info_data+4480
	.quad	L_csbs$1
	.quad	7
	.quad	L_csbs$2
	.quad	49
	.long	73
	.long	1
	.space	16

	.section	__TEXT,__cstring,cstring_literals
L_csbs$21:
	.asciz	"Type_Info_Quaternion"

	.section	__DATA,__const
	.p2align	4
l_ggv$f:
	.quad	L_csbs$21
	.quad	20
	.quad	___$type_info_data+4480
	.quad	L_csbs$1
	.quad	7
	.quad	L_csbs$2
	.quad	49
	.long	74
	.long	1
	.space	16

	.section	__TEXT,__cstring,cstring_literals
L_csbs$22:
	.asciz	"Type_Info_String"

	.section	__DATA,__const
	.p2align	4
l_ggv$10:
	.quad	L_csbs$22
	.quad	16
	.quad	___$type_info_data+5440
	.quad	L_csbs$1
	.quad	7
	.quad	L_csbs$2
	.quad	49
	.long	75
	.long	1
	.space	16

	.section	__TEXT,__cstring,cstring_literals
L_csbs$23:
	.asciz	"is_cstring"

	.section	__DATA,__const
	.p2align	4
l_ggv$11:
	.quad	___$type_info_types_data+352
	.quad	1
	.quad	___$type_info_names_data+256
	.quad	1
	.quad	___$type_info_offsets_data+128
	.quad	1
	.quad	___$type_info_usings_data+16
	.quad	1
	.quad	___$type_info_tags_data+256
	.quad	1
	.byte	0
	.byte	0
	.byte	0
	.byte	0
	.space	4
	.quad	0
	.byte	0
	.space	7
	.quad	0
	.quad	0

	.section	__TEXT,__cstring,cstring_literals
L_csbs$24:
	.asciz	"Type_Info_Boolean"

	.section	__DATA,__const
	.p2align	4
l_ggv$12:
	.quad	L_csbs$24
	.quad	17
	.quad	___$type_info_data+4480
	.quad	L_csbs$1
	.quad	7
	.quad	L_csbs$2
	.quad	49
	.long	76
	.long	1
	.space	16

	.section	__TEXT,__cstring,cstring_literals
L_csbs$25:
	.asciz	"Type_Info_Any"

	.section	__DATA,__const
	.p2align	4
l_ggv$13:
	.quad	L_csbs$25
	.quad	13
	.quad	___$type_info_data+4480
	.quad	L_csbs$1
	.quad	7
	.quad	L_csbs$2
	.quad	49
	.long	77
	.long	1
	.space	16

	.section	__TEXT,__cstring,cstring_literals
L_csbs$26:
	.asciz	"Type_Info_Type_Id"

	.section	__DATA,__const
	.p2align	4
l_ggv$14:
	.quad	L_csbs$26
	.quad	17
	.quad	___$type_info_data+4480
	.quad	L_csbs$1
	.quad	7
	.quad	L_csbs$2
	.quad	49
	.long	78
	.long	1
	.space	16

	.section	__TEXT,__cstring,cstring_literals
L_csbs$27:
	.asciz	"Type_Info_Pointer"

	.section	__DATA,__const
	.p2align	4
l_ggv$15:
	.quad	L_csbs$27
	.quad	17
	.quad	___$type_info_data+6240
	.quad	L_csbs$1
	.quad	7
	.quad	L_csbs$2
	.quad	49
	.long	79
	.long	1
	.space	16

	.section	__TEXT,__cstring,cstring_literals
L_csbs$28:
	.asciz	"elem"

	.section	__DATA,__const
	.p2align	4
l_ggv$16:
	.quad	___$type_info_types_data+360
	.quad	1
	.quad	___$type_info_names_data+272
	.quad	1
	.quad	___$type_info_offsets_data+136
	.quad	1
	.quad	___$type_info_usings_data+17
	.quad	1
	.quad	___$type_info_tags_data+272
	.quad	1
	.byte	0
	.byte	0
	.byte	0
	.byte	0
	.space	4
	.quad	0
	.byte	0
	.space	7
	.quad	0
	.quad	0

	.section	__TEXT,__cstring,cstring_literals
L_csbs$29:
	.asciz	"Type_Info_Multi_Pointer"

	.section	__DATA,__const
	.p2align	4
l_ggv$17:
	.quad	L_csbs$29
	.quad	23
	.quad	___$type_info_data+6240
	.quad	L_csbs$1
	.quad	7
	.quad	L_csbs$2
	.quad	49
	.long	82
	.long	1
	.space	16

	.section	__TEXT,__cstring,cstring_literals
L_csbs$2a:
	.asciz	"Type_Info_Procedure"

	.section	__DATA,__const
	.p2align	4
l_ggv$18:
	.quad	L_csbs$2a
	.quad	19
	.quad	___$type_info_data+6720
	.quad	L_csbs$1
	.quad	7
	.quad	L_csbs$2
	.quad	49
	.long	85
	.long	1
	.space	16

	.section	__TEXT,__cstring,cstring_literals
L_csbs$2b:
	.asciz	"params"

L_csbs$2c:
	.asciz	"results"

L_csbs$2d:
	.asciz	"variadic"

L_csbs$2e:
	.asciz	"convention"

	.section	__DATA,__const
	.p2align	4
l_ggv$19:
	.quad	___$type_info_types_data+368
	.quad	4
	.quad	___$type_info_names_data+288
	.quad	4
	.quad	___$type_info_offsets_data+144
	.quad	4
	.quad	___$type_info_usings_data+18
	.quad	4
	.quad	___$type_info_tags_data+288
	.quad	4
	.byte	0
	.byte	0
	.byte	0
	.byte	0
	.space	4
	.quad	0
	.byte	0
	.space	7
	.quad	0
	.quad	0

	.section	__TEXT,__cstring,cstring_literals
L_csbs$2f:
	.asciz	"Calling_Convention"

	.section	__DATA,__const
	.p2align	4
l_ggv$1a:
	.quad	L_csbs$2f
	.quad	18
	.quad	___$type_info_data+7040
	.quad	L_csbs$1
	.quad	7
	.quad	L_csbs$2
	.quad	49
	.long	26
	.long	1
	.space	16

	.p2align	4
"l_$enum_names-44":
	.quad	L_csbs$30
	.quad	7
	.quad	L_csbs$31
	.quad	4
	.quad	L_csbs$32
	.quad	11
	.quad	L_csbs$33
	.quad	5
	.quad	L_csbs$34
	.quad	8
	.quad	L_csbs$35
	.quad	9
	.quad	L_csbs$36
	.quad	4
	.quad	L_csbs$37
	.quad	5
	.quad	L_csbs$38
	.quad	5
	.quad	L_csbs$39
	.quad	4

	.section	__TEXT,__const
	.p2align	4
"l_$enum_values-44":
	.quad	0
	.quad	1
	.quad	2
	.quad	3
	.quad	4
	.quad	5
	.quad	6
	.quad	7
	.quad	9
	.quad	10

	.section	__TEXT,__cstring,cstring_literals
L_csbs$30:
	.asciz	"Invalid"

L_csbs$31:
	.asciz	"Odin"

L_csbs$32:
	.asciz	"Contextless"

L_csbs$33:
	.asciz	"CDecl"

L_csbs$34:
	.asciz	"Std_Call"

L_csbs$35:
	.asciz	"Fast_Call"

L_csbs$36:
	.asciz	"None"

L_csbs$37:
	.asciz	"Naked"

L_csbs$38:
	.asciz	"Win64"

L_csbs$39:
	.asciz	"SysV"

L_csbs$3a:
	.asciz	"Type_Info_Array"

	.section	__DATA,__const
	.p2align	4
l_ggv$1b:
	.quad	L_csbs$3a
	.quad	15
	.quad	___$type_info_data+7360
	.quad	L_csbs$1
	.quad	7
	.quad	L_csbs$2
	.quad	49
	.long	91
	.long	1
	.space	16

	.section	__TEXT,__cstring,cstring_literals
L_csbs$3b:
	.asciz	"elem_size"

L_csbs$3c:
	.asciz	"count"

	.section	__DATA,__const
	.p2align	4
l_ggv$1c:
	.quad	___$type_info_types_data+400
	.quad	3
	.quad	___$type_info_names_data+352
	.quad	3
	.quad	___$type_info_offsets_data+176
	.quad	3
	.quad	___$type_info_usings_data+22
	.quad	3
	.quad	___$type_info_tags_data+352
	.quad	3
	.byte	0
	.byte	0
	.byte	0
	.byte	0
	.space	4
	.quad	0
	.byte	0
	.space	7
	.quad	0
	.quad	0

	.section	__TEXT,__cstring,cstring_literals
L_csbs$3d:
	.asciz	"Type_Info_Enumerated_Array"

	.section	__DATA,__const
	.p2align	4
l_ggv$1d:
	.quad	L_csbs$3d
	.quad	26
	.quad	___$type_info_data+7680
	.quad	L_csbs$1
	.quad	7
	.quad	L_csbs$2
	.quad	49
	.long	96
	.long	1
	.space	16

	.section	__TEXT,__cstring,cstring_literals
L_csbs$3e:
	.asciz	"index"

L_csbs$3f:
	.asciz	"min_value"

L_csbs$40:
	.asciz	"max_value"

L_csbs$41:
	.asciz	"is_sparse"

	.section	__DATA,__const
	.p2align	4
l_ggv$1e:
	.quad	___$type_info_types_data+424
	.quad	7
	.quad	___$type_info_names_data+400
	.quad	7
	.quad	___$type_info_offsets_data+200
	.quad	7
	.quad	___$type_info_usings_data+25
	.quad	7
	.quad	___$type_info_tags_data+400
	.quad	7
	.byte	0
	.byte	0
	.byte	0
	.byte	0
	.space	4
	.quad	0
	.byte	0
	.space	7
	.quad	0
	.quad	0

	.section	__TEXT,__cstring,cstring_literals
L_csbs$42:
	.asciz	"Type_Info_Enum_Value"

	.section	__DATA,__const
	.p2align	4
l_ggv$1f:
	.quad	L_csbs$42
	.quad	20
	.quad	___$type_info_data+8000
	.quad	L_csbs$1
	.quad	7
	.quad	L_csbs$2
	.quad	49
	.long	43
	.long	1
	.space	16

	.section	__TEXT,__cstring,cstring_literals
L_csbs$43:
	.asciz	"Type_Info_Dynamic_Array"

	.section	__DATA,__const
	.p2align	4
l_ggv$20:
	.quad	L_csbs$43
	.quad	23
	.quad	___$type_info_data+8320
	.quad	L_csbs$1
	.quad	7
	.quad	L_csbs$2
	.quad	49
	.long	105
	.long	1
	.space	16

	.p2align	4
l_ggv$21:
	.quad	___$type_info_types_data+480
	.quad	2
	.quad	___$type_info_names_data+512
	.quad	2
	.quad	___$type_info_offsets_data+256
	.quad	2
	.quad	___$type_info_usings_data+32
	.quad	2
	.quad	___$type_info_tags_data+512
	.quad	2
	.byte	0
	.byte	0
	.byte	0
	.byte	0
	.space	4
	.quad	0
	.byte	0
	.space	7
	.quad	0
	.quad	0

	.section	__TEXT,__cstring,cstring_literals
L_csbs$44:
	.asciz	"Type_Info_Slice"

	.section	__DATA,__const
	.p2align	4
l_ggv$22:
	.quad	L_csbs$44
	.quad	15
	.quad	___$type_info_data+8320
	.quad	L_csbs$1
	.quad	7
	.quad	L_csbs$2
	.quad	49
	.long	106
	.long	1
	.space	16

	.section	__TEXT,__cstring,cstring_literals
L_csbs$45:
	.asciz	"Type_Info_Parameters"

	.section	__DATA,__const
	.p2align	4
l_ggv$23:
	.quad	L_csbs$45
	.quad	20
	.quad	___$type_info_data+8800
	.quad	L_csbs$1
	.quad	7
	.quad	L_csbs$2
	.quad	49
	.long	108
	.long	1
	.space	16

	.section	__TEXT,__cstring,cstring_literals
L_csbs$46:
	.asciz	"types"

L_csbs$47:
	.asciz	"names"

	.section	__DATA,__const
	.p2align	4
l_ggv$24:
	.quad	___$type_info_types_data+496
	.quad	2
	.quad	___$type_info_names_data+544
	.quad	2
	.quad	___$type_info_offsets_data+272
	.quad	2
	.quad	___$type_info_usings_data+34
	.quad	2
	.quad	___$type_info_tags_data+544
	.quad	2
	.byte	0
	.byte	0
	.byte	0
	.byte	0
	.space	4
	.quad	0
	.byte	0
	.space	7
	.quad	0
	.quad	0

	.section	__TEXT,__cstring,cstring_literals
L_csbs$48:
	.asciz	"Type_Info_Struct"

	.section	__DATA,__const
	.p2align	4
l_ggv$25:
	.quad	L_csbs$48
	.quad	16
	.quad	___$type_info_data+9760
	.quad	L_csbs$1
	.quad	7
	.quad	L_csbs$2
	.quad	49
	.long	114
	.long	1
	.space	16

	.section	__TEXT,__cstring,cstring_literals
L_csbs$49:
	.asciz	"offsets"

L_csbs$4a:
	.asciz	"usings"

L_csbs$4b:
	.asciz	"tags"

L_csbs$4c:
	.asciz	"is_packed"

L_csbs$4d:
	.asciz	"is_raw_union"

L_csbs$4e:
	.asciz	"is_no_copy"

L_csbs$4f:
	.asciz	"custom_align"

L_csbs$50:
	.asciz	"equal"

L_csbs$51:
	.asciz	"soa_kind"

L_csbs$52:
	.asciz	"soa_base_type"

L_csbs$53:
	.asciz	"soa_len"

	.section	__DATA,__const
	.p2align	4
l_ggv$26:
	.quad	___$type_info_types_data+512
	.quad	13
	.quad	___$type_info_names_data+576
	.quad	13
	.quad	___$type_info_offsets_data+288
	.quad	13
	.quad	___$type_info_usings_data+36
	.quad	13
	.quad	___$type_info_tags_data+576
	.quad	13
	.byte	0
	.byte	0
	.byte	0
	.byte	0
	.space	4
	.quad	0
	.byte	0
	.space	7
	.quad	0
	.quad	0

	.section	__TEXT,__cstring,cstring_literals
L_csbs$54:
	.asciz	"Equal_Proc"

	.section	__DATA,__const
	.p2align	4
l_ggv$27:
	.quad	L_csbs$54
	.quad	10
	.quad	___$type_info_data+10880
	.quad	L_csbs$1
	.quad	7
	.quad	L_csbs$2
	.quad	49
	.long	52
	.long	1
	.space	16

	.section	__TEXT,__cstring,cstring_literals
L_csbs$55:
	.asciz	"_"

L_csbs$56:
	.asciz	"Type_Info_Struct_Soa_Kind"

	.section	__DATA,__const
	.p2align	4
l_ggv$28:
	.quad	L_csbs$56
	.quad	25
	.quad	___$type_info_data+11520
	.quad	L_csbs$1
	.quad	7
	.quad	L_csbs$2
	.quad	49
	.long	56
	.long	1
	.space	16

	.p2align	4
"l_$enum_names-72":
	.quad	L_csbs$36
	.quad	4
	.quad	L_csbs$57
	.quad	5
	.quad	L_csbs$58
	.quad	5
	.quad	L_csbs$59
	.quad	7

	.section	__TEXT,__const
	.p2align	4
"l_$enum_values-72":
	.quad	0
	.quad	1
	.quad	2
	.quad	3

	.section	__TEXT,__cstring,cstring_literals
L_csbs$57:
	.asciz	"Fixed"

L_csbs$58:
	.asciz	"Slice"

L_csbs$59:
	.asciz	"Dynamic"

L_csbs$5a:
	.asciz	"Type_Info_Union"

	.section	__DATA,__const
	.p2align	4
l_ggv$29:
	.quad	L_csbs$5a
	.quad	15
	.quad	___$type_info_data+11840
	.quad	L_csbs$1
	.quad	7
	.quad	L_csbs$2
	.quad	49
	.long	132
	.long	1
	.space	16

	.section	__TEXT,__cstring,cstring_literals
L_csbs$5b:
	.asciz	"variants"

L_csbs$5c:
	.asciz	"tag_offset"

L_csbs$5d:
	.asciz	"tag_type"

L_csbs$5e:
	.asciz	"no_nil"

L_csbs$5f:
	.asciz	"shared_nil"

	.section	__DATA,__const
	.p2align	4
l_ggv$2a:
	.quad	___$type_info_types_data+640
	.quad	7
	.quad	___$type_info_names_data+832
	.quad	7
	.quad	___$type_info_offsets_data+392
	.quad	7
	.quad	___$type_info_usings_data+49
	.quad	7
	.quad	___$type_info_tags_data+784
	.quad	7
	.byte	0
	.byte	0
	.byte	0
	.byte	0
	.space	4
	.quad	0
	.byte	0
	.space	7
	.quad	0
	.quad	0

	.section	__TEXT,__cstring,cstring_literals
L_csbs$60:
	.asciz	"Type_Info_Enum"

	.section	__DATA,__const
	.p2align	4
l_ggv$2b:
	.quad	L_csbs$60
	.quad	14
	.quad	___$type_info_data+12160
	.quad	L_csbs$1
	.quad	7
	.quad	L_csbs$2
	.quad	49
	.long	143
	.long	1
	.space	16

	.section	__TEXT,__cstring,cstring_literals
L_csbs$61:
	.asciz	"values"

	.section	__DATA,__const
	.p2align	4
l_ggv$2c:
	.quad	___$type_info_types_data+696
	.quad	3
	.quad	___$type_info_names_data+944
	.quad	3
	.quad	___$type_info_offsets_data+448
	.quad	3
	.quad	___$type_info_usings_data+56
	.quad	3
	.quad	___$type_info_tags_data+896
	.quad	3
	.byte	0
	.byte	0
	.byte	0
	.byte	0
	.space	4
	.quad	0
	.byte	0
	.space	7
	.quad	0
	.quad	0

	.section	__TEXT,__cstring,cstring_literals
L_csbs$62:
	.asciz	"Type_Info_Map"

	.section	__DATA,__const
	.p2align	4
l_ggv$2d:
	.quad	L_csbs$62
	.quad	13
	.quad	___$type_info_data+12800
	.quad	L_csbs$1
	.quad	7
	.quad	L_csbs$2
	.quad	49
	.long	148
	.long	1
	.space	16

	.section	__TEXT,__cstring,cstring_literals
L_csbs$63:
	.asciz	"key"

L_csbs$64:
	.asciz	"value"

L_csbs$65:
	.asciz	"map_info"

	.section	__DATA,__const
	.p2align	4
l_ggv$2e:
	.quad	___$type_info_types_data+720
	.quad	3
	.quad	___$type_info_names_data+992
	.quad	3
	.quad	___$type_info_offsets_data+472
	.quad	3
	.quad	___$type_info_usings_data+59
	.quad	3
	.quad	___$type_info_tags_data+944
	.quad	3
	.byte	0
	.byte	0
	.byte	0
	.byte	0
	.space	4
	.quad	0
	.byte	0
	.space	7
	.quad	0
	.quad	0

	.section	__TEXT,__cstring,cstring_literals
L_csbs$66:
	.asciz	"/Users/tarvydas/tools/Odin/core/runtime/dynamic_map_internal.odin"

L_csbs$67:
	.asciz	"Map_Info"

	.section	__DATA,__const
	.p2align	4
l_ggv$2f:
	.quad	L_csbs$67
	.quad	8
	.quad	___$type_info_data+13280
	.quad	L_csbs$1
	.quad	7
	.quad	L_csbs$66
	.quad	65
	.long	300
	.long	1
	.space	16

	.section	__TEXT,__cstring,cstring_literals
L_csbs$68:
	.asciz	"ks"

L_csbs$69:
	.asciz	"vs"

L_csbs$6a:
	.asciz	"key_hasher"

L_csbs$6b:
	.asciz	"key_equal"

	.section	__DATA,__const
	.p2align	4
l_ggv$30:
	.quad	___$type_info_types_data+744
	.quad	4
	.quad	___$type_info_names_data+1040
	.quad	4
	.quad	___$type_info_offsets_data+496
	.quad	4
	.quad	___$type_info_usings_data+62
	.quad	4
	.quad	___$type_info_tags_data+992
	.quad	4
	.byte	0
	.byte	0
	.byte	0
	.byte	0
	.space	4
	.quad	0
	.byte	0
	.space	7
	.quad	0
	.quad	0

	.section	__TEXT,__cstring,cstring_literals
L_csbs$6c:
	.asciz	"Map_Cell_Info"

	.section	__DATA,__const
	.p2align	4
l_ggv$31:
	.quad	L_csbs$6c
	.quad	13
	.quad	___$type_info_data+13760
	.quad	L_csbs$1
	.quad	7
	.quad	L_csbs$66
	.quad	65
	.long	99
	.long	1
	.space	16

	.section	__TEXT,__cstring,cstring_literals
L_csbs$6d:
	.asciz	"size_of_type"

L_csbs$6e:
	.asciz	"align_of_type"

L_csbs$6f:
	.asciz	"size_of_cell"

L_csbs$70:
	.asciz	"elements_per_cell"

	.section	__DATA,__const
	.p2align	4
l_ggv$32:
	.quad	___$type_info_types_data+776
	.quad	4
	.quad	___$type_info_names_data+1104
	.quad	4
	.quad	___$type_info_offsets_data+528
	.quad	4
	.quad	___$type_info_usings_data+66
	.quad	4
	.quad	___$type_info_tags_data+1056
	.quad	4
	.byte	0
	.byte	0
	.byte	0
	.byte	0
	.space	4
	.quad	0
	.byte	0
	.space	7
	.quad	0
	.quad	0

	.section	__TEXT,__cstring,cstring_literals
L_csbs$71:
	.asciz	"seed"

L_csbs$72:
	.asciz	"lhs"

L_csbs$73:
	.asciz	"rhs"

L_csbs$74:
	.asciz	"Type_Info_Bit_Set"

	.section	__DATA,__const
	.p2align	4
l_ggv$33:
	.quad	L_csbs$74
	.quad	17
	.quad	___$type_info_data+14880
	.quad	L_csbs$1
	.quad	7
	.quad	L_csbs$2
	.quad	49
	.long	153
	.long	1
	.space	16

	.section	__TEXT,__cstring,cstring_literals
L_csbs$75:
	.asciz	"underlying"

L_csbs$76:
	.asciz	"lower"

L_csbs$77:
	.asciz	"upper"

	.section	__DATA,__const
	.p2align	4
l_ggv$34:
	.quad	___$type_info_types_data+848
	.quad	4
	.quad	___$type_info_names_data+1248
	.quad	4
	.quad	___$type_info_offsets_data+560
	.quad	4
	.quad	___$type_info_usings_data+70
	.quad	4
	.quad	___$type_info_tags_data+1120
	.quad	4
	.byte	0
	.byte	0
	.byte	0
	.byte	0
	.space	4
	.quad	0
	.byte	0
	.space	7
	.quad	0
	.quad	0

	.section	__TEXT,__cstring,cstring_literals
L_csbs$78:
	.asciz	"Type_Info_Simd_Vector"

	.section	__DATA,__const
	.p2align	4
l_ggv$35:
	.quad	L_csbs$78
	.quad	21
	.quad	___$type_info_data+7360
	.quad	L_csbs$1
	.quad	7
	.quad	L_csbs$2
	.quad	49
	.long	159
	.long	1
	.space	16

	.section	__TEXT,__cstring,cstring_literals
L_csbs$79:
	.asciz	"Type_Info_Relative_Pointer"

	.section	__DATA,__const
	.p2align	4
l_ggv$36:
	.quad	L_csbs$79
	.quad	26
	.quad	___$type_info_data+15360
	.quad	L_csbs$1
	.quad	7
	.quad	L_csbs$2
	.quad	49
	.long	164
	.long	1
	.space	16

	.section	__TEXT,__cstring,cstring_literals
L_csbs$7a:
	.asciz	"pointer"

L_csbs$7b:
	.asciz	"base_integer"

	.section	__DATA,__const
	.p2align	4
l_ggv$37:
	.quad	___$type_info_types_data+880
	.quad	2
	.quad	___$type_info_names_data+1312
	.quad	2
	.quad	___$type_info_offsets_data+592
	.quad	2
	.quad	___$type_info_usings_data+74
	.quad	2
	.quad	___$type_info_tags_data+1184
	.quad	2
	.byte	0
	.byte	0
	.byte	0
	.byte	0
	.space	4
	.quad	0
	.byte	0
	.space	7
	.quad	0
	.quad	0

	.section	__TEXT,__cstring,cstring_literals
L_csbs$7c:
	.asciz	"Type_Info_Relative_Slice"

	.section	__DATA,__const
	.p2align	4
l_ggv$38:
	.quad	L_csbs$7c
	.quad	24
	.quad	___$type_info_data+15680
	.quad	L_csbs$1
	.quad	7
	.quad	L_csbs$2
	.quad	49
	.long	168
	.long	1
	.space	16

	.section	__TEXT,__cstring,cstring_literals
L_csbs$7d:
	.asciz	"slice"

	.section	__DATA,__const
	.p2align	4
l_ggv$39:
	.quad	___$type_info_types_data+896
	.quad	2
	.quad	___$type_info_names_data+1344
	.quad	2
	.quad	___$type_info_offsets_data+608
	.quad	2
	.quad	___$type_info_usings_data+76
	.quad	2
	.quad	___$type_info_tags_data+1216
	.quad	2
	.byte	0
	.byte	0
	.byte	0
	.byte	0
	.space	4
	.quad	0
	.byte	0
	.space	7
	.quad	0
	.quad	0

	.section	__TEXT,__cstring,cstring_literals
L_csbs$7e:
	.asciz	"Type_Info_Matrix"

	.section	__DATA,__const
	.p2align	4
l_ggv$3a:
	.quad	L_csbs$7e
	.quad	16
	.quad	___$type_info_data+16000
	.quad	L_csbs$1
	.quad	7
	.quad	L_csbs$2
	.quad	49
	.long	172
	.long	1
	.space	16

	.section	__TEXT,__cstring,cstring_literals
L_csbs$7f:
	.asciz	"elem_stride"

L_csbs$80:
	.asciz	"row_count"

L_csbs$81:
	.asciz	"column_count"

	.section	__DATA,__const
	.p2align	4
l_ggv$3b:
	.quad	___$type_info_types_data+912
	.quad	5
	.quad	___$type_info_names_data+1376
	.quad	5
	.quad	___$type_info_offsets_data+624
	.quad	5
	.quad	___$type_info_usings_data+78
	.quad	5
	.quad	___$type_info_tags_data+1248
	.quad	5
	.byte	0
	.byte	0
	.byte	0
	.byte	0
	.space	4
	.quad	0
	.byte	0
	.space	7
	.quad	0
	.quad	0

	.section	__TEXT,__cstring,cstring_literals
L_csbs$82:
	.asciz	"Type_Info_Soa_Pointer"

	.section	__DATA,__const
	.p2align	4
l_ggv$3c:
	.quad	L_csbs$82
	.quad	21
	.quad	___$type_info_data+6240
	.quad	L_csbs$1
	.quad	7
	.quad	L_csbs$2
	.quad	49
	.long	180
	.long	1
	.space	16

	.section	__TEXT,__cstring,cstring_literals
L_csbs$83:
	.space	1

L_csbs$84:
	.asciz	"/Users/tarvydas/tools/Odin/core/runtime/default_allocators_arena.odin"

L_csbs$85:
	.asciz	"memory_block_alloc"

	.section	__DATA,__const
	.p2align	4
l_ggv$3d:
	.quad	L_csbs$84
	.quad	69
	.long	45
	.long	2
	.quad	L_csbs$85
	.quad	18

	.p2align	4
l_ggv$3e:
	.quad	L_csbs$84
	.quad	69
	.long	46
	.long	2
	.quad	L_csbs$85
	.quad	18

	.section	__TEXT,__cstring,cstring_literals
L_csbs$86:
	.asciz	"non-power of two alignment"

L_csbs$87:
	.asciz	" Invalid slice indices "

L_csbs$88:
	.asciz	":"

L_csbs$89:
	.asciz	" is out of range 0..<"

L_csbs$8a:
	.asciz	"/Users/tarvydas/quicklisp/local-projects/odinasm/main.odin"

L_csbs$8b:
	.asciz	"pt6"

	.section	__DATA,__const
	.p2align	4
l_ggv$3f:
	.quad	L_csbs$8a
	.quad	58
	.long	32
	.long	12
	.quad	L_csbs$8b
	.quad	3

	.section	__TEXT,__cstring,cstring_literals
L_csbs$8c:
	.asciz	"abcdefghijklmn ABCDEFGHIJKLMN"

L_csbs$8d:
	.asciz	"/Users/tarvydas/tools/Odin/core/mem/mem.odin"

L_csbs$8e:
	.asciz	" "

L_csbs$8f:
	.asciz	": "

L_csbs$90:
	.asciz	"/Users/tarvydas/tools/Odin/core/strings/strings.odin"

L_csbs$91:
	.asciz	"/Users/tarvydas/tools/Odin/core/runtime/default_temporary_allocator.odin"

L_csbs$92:
	.asciz	"default_temp_allocator_destroy"

	.section	__DATA,__const
	.p2align	4
l_ggv$40:
	.quad	L_csbs$91
	.quad	72
	.long	33
	.long	4
	.quad	L_csbs$92
	.quad	30

	.section	__TEXT,__cstring,cstring_literals
L_csbs$93:
	.asciz	"/Users/tarvydas/tools/Odin/core/runtime/entry_unix.odin"

L_csbs$94:
	.asciz	" Index "

L_csbs$95:
	.asciz	" Matrix indices ["

L_csbs$96:
	.asciz	", "

L_csbs$97:
	.asciz	" is out of range [0..<"

L_csbs$98:
	.asciz	", 0..<"

L_csbs$99:
	.asciz	"]"

L_csbs$9a:
	.asciz	"runtime assertion"

L_csbs$9b:
	.asciz	"/Users/tarvydas/tools/Odin/core/os/os.odin"

L_csbs$9c:
	.asciz	" Invalid slice length for make: "
